******************************************************************************
                  TI ARM Linker PC v18.1.2                     
******************************************************************************
>> Linked Wed Jun 27 11:00:58 2018

OUTPUT FILE NAME:   <coprocessor_2_4g_cc26x2lp.out>
ENTRY POINT SYMBOL: "ResetISR"  address: 0000f78d


MEMORY CONFIGURATION

         name            origin    length      used     unused   attr    fill
----------------------  --------  ---------  --------  --------  ----  --------
  FLASH                 00000000   00052000  00016291  0003bd6f  R  X
  FLASH_NV              00052000   00004000  00004000  00000000  RW X
  FLASH_LAST            00056000   00002000  00001c92  0000036e  R  X
  SRAM                  20000000   00014000  000034b4  00010b4c  RW X


SEGMENT ALLOCATION MAP

run origin  load origin   length   init length attrs members
----------  ----------- ---------- ----------- ----- -------
00000000    00000000    00016298   00016298    r-x
  00000000    00000000    0000003c   0000003c    r-- .resetVecs
  00000040    00000040    00014700   00014700    r-x .text
  00014740    00014740    00000f30   00000f30    r-- .const
  00015670    00015670    0000087d   0000087d    r-- config_const
  00015ef0    00015ef0    000003a8   000003a8    r-- .cinit
00052000    00052000    00004000   00000000    rw-
  00052000    00052000    00004000   00000000    rw- .TI.bound:flashBuf$20
00056000    00056000    00001c3a   00001c3a    r-x
  00056000    00056000    00001c3a   00001c3a    r-x flash_last_text
00057fa8    00057fa8    00000058   00000058    r--
  00057fa8    00057fa8    00000058   00000058    r-- .ccfg
20000100    20000100    0000000c   00000000    rw-
  20000100    20000100    00000004   00000000    rw- .data:xdcRomConstPtr
  20000104    20000104    00000004   00000000    rw- .data:xdcRomExternFuncPtr
  20000108    20000108    00000004   00000000    rw- .data:xdcRomStatePtr
20001830    20001830    00000010   00000000    rw-
  20001830    20001830    00000010   00000000    rw- .TI.bound:dmaSpi0RxControlTableEntry
20001840    20001840    00000010   00000000    rw-
  20001840    20001840    00000010   00000000    rw- .TI.bound:dmaSpi0TxControlTableEntry
20001900    20001900    00000010   00000000    rw-
  20001900    20001900    00000010   00000000    rw- .TI.bound:dmaSpi1RxControlTableEntry
20001910    20001910    00002ea0   00000000    rw-
  20001910    20001910    00000010   00000000    rw- .TI.bound:dmaSpi1TxControlTableEntry
  20001920    20001920    0000193d   00000000    rw- .data
  20003260    20003260    00001550   00000000    rw- .bss
20013b00    20013b00    00000500   00000000    rw-
  20013b00    20013b00    00000500   00000000    rw- .stack


SECTION ALLOCATION MAP

 output                                  attributes/
section   page    origin      length       input sections
--------  ----  ----------  ----------   ----------------
.text      0    00000040    00014700     
                  00000040    00000824     mt_mac.obj (.text:MtMac_commandProcessing)
                  00000864    00000814     maclib_secure_cc2652_2_4g.a : mac.obj (.text:macRxCbIeee$69)
                  00001078    00000500                                 : mac_rx.obj (.text:rxPayloadIsr$74)
                  00001578    000003d4                                 : mac_data.obj (.text:macApiDataReq)
                  0000194c    0000036c                                 : macwrapper.obj (.text:macWrapperAddDevice)
                  00001cb8    00000364                                 : mac_mgmt.obj (.text:macBuildHeader)
                  0000201c    00000338                                 : mac_mgmt.obj (.text:MAC_MlmeResetReq)
                  00002354    00000324     api_mac.obj (.text:processIncomingICallMsg$10)
                  00002678    00000314     npi_task.obj (.text:NPITask_process$7)
                  0000298c    000002f8     rf_multiMode_cc26x2_v1.aem4f : RFCC26X2_multiMode.oem4f (.text:RF_fsmActiveState)
                  00002c84    000002e4     mcp.obj (.text:processMsg$14)
                  00002f68    000002b8     maclib_secure_cc2652_2_4g.a : mac_pwr.obj (.text:macPwrVote)
                  00003220    00000280                                 : mac_data.obj (.text:MAC_McpsDataReq)
                  000034a0    00000260                                 : mac_security_pib.obj (.text:MAC_MlmeSetSecurityReq)
                  00003700    0000024c     mt_sys.obj (.text:MtSys_commandProcessing)
                  0000394c    00000228     mcp.obj (.text:MCP_task)
                  00003b74    00000222     maclib_secure_cc2652_2_4g.a : mac_security.obj (.text:macIncomingFrameSecurityMaterialRetrieval)
                  00003d96    00000002     driverlib.lib : rfc.obj (.text:NOROM_RFCCpePatchReset)
                  00003d98    00000220                   : setup.obj (.text:TrimAfterColdResetWakeupFromShutDown$51)
                  00003fb8    00000218     drivers_cc26x2_v1.aem4f : SPICC26XXDMA.oem4f (.text:SPICC26XXDMA_transfer)
                  000041d0    000001d8     maclib_secure_cc2652_2_4g.a : mac_coord.obj (.text:macBuildBeacon)
                  000043a8    000001d4     macstack.obj (.text:macStackEventLoop)
                  0000457c    000001c0     maclib_secure_cc2652_2_4g.a : mac_security_pib.obj (.text:MAC_MlmeGetSecurityReq)
                  0000473c    000001c0     drivers_cc26x2_v1.aem4f : PINCC26XX.oem4f (.text:PIN_init)
                  000048fc    000001b0     maclib_secure_cc2652_2_4g.a : mac.obj (.text:macSendReceiveCmdIeee)
                  00004aac    000001a4                                 : mac_pib.obj (.text:MAC_MlmeSetReq)
                  00004c50    000001a4     drivers_cc26x2_v1.aem4f : PowerCC26X2.oem4f (.text:Power_sleep)
                  00004df4    00000198     mt_util.obj (.text:MtUtil_commandProcessing)
                  00004f8c    00000198     maclib_secure_cc2652_2_4g.a : macwrapper.obj (.text:macWrapperAddKeyInitFCtr)
                  00005124    00000194                                 : mac_scan.obj (.text:macApiScanReq)
                  000052b8    00000194                                 : mac_tx.obj (.text:macTxFrame)
                  0000544c    00000194     drivers_cc26x2_v1.aem4f : PowerCC26X2_calibrateRCOSC.oem4f (.text:runCalibrateFsm)
                  000055e0    00000190     mt.obj (.text:MT_sendResponse)
                  00005770    0000018c     rf_multiMode_cc26x2_v1.aem4f : RFCC26X2_multiMode.oem4f (.text:RF_scheduleCmd)
                  000058fc    0000017c     maclib_secure_cc2652_2_4g.a : mac_beacon_device.obj (.text:macRxBeaconCritical)
                  00005a78    00000170     rf_multiMode_cc26x2_v1.aem4f : RFCC26X2_multiMode.oem4f (.text:RF_fsmSetupState)
                  00005be8    00000170     maclib_secure_cc2652_2_4g.a : mac_data.obj (.text:macTxCompleteCallback)
                  00005d58    0000016c                                 : macwrapper.obj (.text:macWrapperDeleteKeyAndAssociatedDevices)
                  00005ec4    00000168     nvoctp.obj (.text:NVOCTP_newItem$46)
                  0000602c    00000168     drivers_cc26x2_v1.aem4f : NVSSPI25X.oem4f (.text:NVSSPI25X_write)
                  00006194    00000160                             : SPICC26XXDMA.oem4f (.text:SPICC26XXDMA_initIO)
                  000062f4    0000015c                             : UARTCC26XX.oem4f (.text:UARTCC26XX_open)
                  00006450    0000015c                             : PowerCC26X2_calibrateRCOSC.oem4f (.text:calibrateRcoscHf1)
                  000065ac    00000154                             : UARTCC26XX.oem4f (.text:UARTCC26XX_hwiIntFxn)
                  00006700    00000150     maclib_secure_cc2652_2_4g.a : macwrapper.obj (.text:macWrapperDeleteDevice)
                  00006850    00000144                                 : mac_beacon_coord.obj (.text:macTxBeaconCompleteCallback)
                  00006994    00000144                                 : mac_mgmt.obj (.text:macTxCsmaDelay)
                  00006ad8    00000140     main.obj (.text:taskFxn$13)
                  00006c18    00000138     nvoctp.obj (.text:NVOCTP_initNvApi$46)
                  00006d50    00000138     drivers_cc26x2_v1.aem4f : NVSCC26XX.oem4f (.text:NVSCC26XX_write)
                  00006e88    00000134     maclib_secure_cc2652_2_4g.a : mac_beacon_device.obj (.text:macAutoPoll)
                  00006fbc    00000130     nvoctp.obj (.text:NVOCTP_compactPage$46)
                  000070ec    00000130     drivers_cc26x2_v1.aem4f : PowerCC26X2.oem4f (.text:Power_init)
                  0000721c    0000012e     mt_mac.obj (.text:MtMac_BeaconNotifyInd)
                  0000734a    00000002     drivers_cc26x2_v1.aem4f : NVSSPI25X.oem4f (.text:NVSSPI25X_deinitSpiCs)
                  0000734c    0000012c     rf_multiMode_cc26x2_v1.aem4f : RFCC26X2_multiMode.oem4f (.text:RF_getInfo)
                  00007478    0000012c     maclib_secure_cc2652_2_4g.a : mac_data.obj (.text:macAutoPendAddSrcMatchTableEntry)
                  000075a4    0000012c                                 : mac_radio_tx.obj (.text:macRadioTxGoIeee$82)
                  000076d0    00000128     rf_multiMode_cc26x2_v1.aem4f : RFCC26X2_multiMode.oem4f (.text:RF_close)
                  000077f8    00000128                                  : RFCC26X2_multiMode.oem4f (.text:RF_fsmChangePhyState)
                  00007920    00000128     maclib_secure_cc2652_2_4g.a : macwrapper.obj (.text:macWrapperDeleteAllDevices)
                  00007a48    00000124     rf_multiMode_cc26x2_v1.aem4f : RFCC26X2_multiMode.oem4f (.text:RF_abortCmd)
                  00007b6c    00000124                                  : RFCC26X2_multiMode.oem4f (.text:RF_init)
                  00007c90    00000120     drivers_cc26x2_v1.aem4f : UARTCC26XX.oem4f (.text:UARTCC26XX_read)
                  00007db0    0000011c                             : SPICC26XXDMA.oem4f (.text:SPICC26XXDMA_configDMA)
                  00007ecc    0000011c                             : SPICC26XXDMA.oem4f (.text:SPICC26XXDMA_open)
                  00007fe8    0000011c     maclib_secure_cc2652_2_4g.a : mac_radio_tx.obj (.text:macRadioCsmaTxCbIeee$82)
                  00008104    00000118                                 : mac_data.obj (.text:macDataTxSend)
                  0000821c    00000114     driverlib.lib : sys_ctrl.obj (.text:NOROM_SysCtrlStandby)
                  00008330    00000114     rf_multiMode_cc26x2_v1.aem4f : RFCC26X2_multiMode.oem4f (.text:RF_radioOpDoneCb)
                  00008444    00000114     mt_mac.obj (.text:macDataReq$2)
                  00008558    00000110     maclib_secure_cc2652_2_4g.a : mac_radio.obj (.text:macRadioInitIeee)
                  00008668    00000108                                 : mac_device.obj (.text:macApiAssociateReq)
                  00008770    00000104     rf_multiMode_cc26x2_v1.aem4f : RFCC26X2_multiMode.oem4f (.text:RF_open)
                  00008874    00000100     drivers_cc26x2_v1.aem4f : GPIOCC26XX.oem4f (.text:GPIO_setConfig)
                  00008974    00000100     rf_multiMode_cc26x2_v1.aem4f : RFCC26X2_multiMode.oem4f (.text:RF_fsmPowerUpState)
                  00008a74    00000100     drivers_cc26x2_v1.aem4f : UARTCC26XX.oem4f (.text:UARTCC26XX_write)
                  00008b74    00000100     maclib_secure_cc2652_2_4g.a : mac_beacon_coord.obj (.text:macBeaconStartContinue)
                  00008c74    000000fc                                 : mac_beacon_device.obj (.text:macApiSyncReq)
                  00008d70    000000f8     drivers_cc26x2_v1.aem4f : NVSSPI25X.oem4f (.text:NVSSPI25X_open)
                  00008e68    000000f8     maclib_secure_cc2652_2_4g.a : mac_mgmt.obj (.text:macSetDefaultsByPhyID)
                  00008f60    000000f0     drivers_cc26x2_v1.aem4f : AESCCMCC26XX.oem4f (.text:AESCCM_startOperation)
                  00009050    000000f0     rf_multiMode_cc26x2_v1.aem4f : RFCC26X2_multiMode.oem4f (.text:RF_pendCmd)
                  00009140    000000f0     drivers_cc26x2_v1.aem4f : SPICC26XXDMA.oem4f (.text:SPICC26XXDMA_transferCancel)
                  00009230    000000f0     maclib_secure_cc2652_2_4g.a : mac.obj (.text:macRatCb_B)
                  00009320    000000ec                                 : mac_device.obj (.text:macDeviceReset)
                  0000940c    000000ec                                 : mac_scan.obj (.text:macScanNextChan)
                  000094f8    000000e8                                 : mac_data.obj (.text:macAllocTxBuffer)
                  000095e0    000000e8     mt_mac.obj (.text:macStartReq$2)
                  000096c8    000000e0     drivers_cc26x2_v1.aem4f : PINCC26XX.oem4f (.text:PINCC26XX_setIoCfg)
                  000097a8    000000e0     maclib_secure_cc2652_2_4g.a : mac_beacon.obj (.text:macBeaconSetSched)
                  00009888    000000e0                                 : mac.obj (.text:macSetupRATChanCompare)
                  00009968    000000d8     drivers_cc26x2_v1.aem4f : GPIOCC26XX.oem4f (.text:GPIO_init)
                  00009a40    000000d8     rf_multiMode_cc26x2_v1.aem4f : RFCC26X2_multiMode.oem4f (.text:RF_dispatchNextCmd)
                  00009b18    000000d8     maclib_secure_cc2652_2_4g.a : mac_beacon.obj (.text:macBeaconCheckTxTime)
                  00009bf0    000000d8                                 : mac_mgmt.obj (.text:macCommStatusInd)
                  00009cc8    000000d4     rf_multiMode_cc26x2_v1.aem4f : RFCC26X2_multiMode.oem4f (.text:RF_swiHw)
                  00009d9c    000000d0     macstack.obj (.text:MAC_CbackEvent)
                  00009e6c    000000d0     maclib_secure_cc2652_2_4g.a : mac_coord.obj (.text:macIndirectExpire)
                  00009f3c    000000d0                                 : mac_tx.obj (.text:txCsmaPrep$78)
                  0000a00c    000000ce     mt_mac.obj (.text:MtMac_ScanCnf)
                  0000a0da    00000002     rf_multiMode_cc26x2_v1.aem4f : RFCC26X2_multiMode.oem4f (.text:RF_defaultCallback)
                  0000a0dc    000000cc     nvoctp.obj (.text:NVOCTP_readHeader$46)
                  0000a1a8    000000cc     maclib_secure_cc2652_2_4g.a : mac_data.obj (.text:macDataTxEnqueue)
                  0000a274    000000cc                                 : mac_security.obj (.text:macOutgoingFrameKeyDescRetrieval)
                  0000a340    000000cc                                 : mac_scan.obj (.text:macScanRxBeacon)
                  0000a40c    000000ca     mt_mac.obj (.text:dataInd$2)
                  0000a4d6    00000002     rtsv7M4_T_le_v4SPD16_eabi.lib : _lock.c.obj (.text:_nop)
                  0000a4d8    000000c8     drivers_cc26x2_v1.aem4f : PowerCC26X2.oem4f (.text:Power_releaseDependency)
                  0000a5a0    000000c8     rf_multiMode_cc26x2_v1.aem4f : RFCC26X2_multiMode.oem4f (.text:RF_control)
                  0000a668    000000c4     drivers_cc26x2_v1.aem4f : PowerCC26X2.oem4f (.text:Power_setDependency)
                  0000a72c    000000c4     rf_multiMode_cc26x2_v1.aem4f : RFCC26X2_multiMode.oem4f (.text:RF_setTxPower)
                  0000a7f0    000000c0     drivers_cc26x2_v1.aem4f : UARTCC26XX.oem4f (.text:UARTCC26XX_initIO)
                  0000a8b0    000000c0     maclib_secure_cc2652_2_4g.a : mac_mgmt.obj (.text:macApiDisassociateReq)
                  0000a970    000000c0                                 : mac_mgmt.obj (.text:macBuildBeaconNotifyInd)
                  0000aa30    000000c0     mt_mac.obj (.text:macScanReq$2)
                  0000aaf0    000000bc     maclib_secure_cc2652_2_4g.a : mac_scan.obj (.text:MAC_MlmeScanReq)
                  0000abac    000000bc     rf_multiMode_cc26x2_v1.aem4f : RFCC26X2_multiMode.oem4f (.text:RF_hwiCpe0Active)
                  0000ac68    000000bc     maclib_secure_cc2652_2_4g.a : mac_data.obj (.text:macAutoPendMaintainSrcMatchTable)
                  0000ad24    000000b8     drivers_cc26x2_v1.aem4f : UARTCC26XX.oem4f (.text:UARTCC26XX_initHw)
                  0000addc    000000b8     maclib_secure_cc2652_2_4g.a : mac_coord.obj (.text:macCoordReset)
                  0000ae94    000000b8                                 : mac.obj (.text:macRatCb_A)
                  0000af4c    000000b4     dpl_cc26x2_v1.aem4f : PowerCC26X2_tirtos.oem4f (.text:PowerCC26XX_standbyPolicy)
                  0000b000    000000b4     maclib_secure_cc2652_2_4g.a : mac_coord.obj (.text:macApiAssociateRsp)
                  0000b0b4    000000b4                                 : mac_beacon_coord.obj (.text:macApiBeaconStartReq)
                  0000b168    000000b0     nvoctp.obj (.text:NVOCTP_findItem$46)
                  0000b218    000000b0     rf_multiMode_cc26x2_v1.aem4f : RFCC26X2_multiMode.oem4f (.text:RF_corePowerDown)
                  0000b2c8    000000b0     maclib_secure_cc2652_2_4g.a : macwrapper.obj (.text:macWrapperGetDefaultSourceKey)
                  0000b378    000000ac                                 : mac_security.obj (.text:macCcmStarTransform)
                  0000b424    000000ac                                 : mac_coord.obj (.text:macStartSetParams)
                  0000b4d0    000000ac     api_mac.obj (.text:processBeaconNotifyInd$10)
                  0000b57c    000000a8     rf_multiMode_cc26x2_v1.aem4f : RFCC26X2_multiMode.oem4f (.text:RF_getTxPower)
                  0000b624    000000a8     maclib_secure_cc2652_2_4g.a : mac_beacon_device.obj (.text:macBeaconSyncLoss)
                  0000b6cc    000000a8                                 : mac_rx.obj (.text:rxPostRxUpdates$74)
                  0000b774    000000a4     driverlib.lib : aes.obj (.text:NOROM_AESWriteToKeyStore)
                  0000b818    000000a4     nvoctp.obj (.text:NVOCTP_checkItem$46)
                  0000b8bc    000000a4     maclib_secure_cc2652_2_4g.a : mac_coord.obj (.text:macStartBegin)
                  0000b960    000000a2     drivers_cc26x2_v1.aem4f : SPICC26XXDMA.oem4f (.text:SPICC26XXDMA_hwiFxn)
                  0000ba02    00000002                             : PowerCC26X2.oem4f (.text:emptyClockFunc)
                  0000ba04    000000a0     rf_multiMode_cc26x2_v1.aem4f : RFCC26X2_multiMode.oem4f (.text:RF_postCmd)
                  0000baa4    000000a0     auto_init.aem4f : auto_init.oem4f (.text)
                  0000bb44    000000a0     mt_mac.obj (.text:macAddDeviceReq$2)
                  0000bbe4    000000a0     maclib_secure_cc2652_2_4g.a : mac_coord.obj (.text:macIndirectSend)
                  0000bc84    000000a0                                 : mac_main.obj (.text:macSendDataMsg)
                  0000bd24    000000a0     rom_sysbios.aem4f : rom_sysbios.obj (.text:ti_sysbios_knl_Task_setPri__E)
                  0000bdc4    0000009c     driverlib.lib : setup.obj (.text:NOROM_SetupTrimDevice)
                  0000be60    0000009c     npi_tl_uart.obj (.text:NPITLUART_initializeTransport)
                  0000befc    0000009c     drivers_cc26x2_v1.aem4f : UARTCC26XX.oem4f (.text:UARTCC26XX_swiIntFxn)
                  0000bf98    0000009c                             : NVSSPI25X.oem4f (.text:doErase)
                  0000c034    0000009c     rtsv7M4_T_le_v4SPD16_eabi.lib : memcpy_t2.asm.obj (.text)
                  0000c0d0    0000009c     mt_ext.obj (.text:sendFragment$1)
                  0000c16c    00000098     driverlib.lib : osc.obj (.text:NOROM_OSCHF_GetStartupTime)
                  0000c204    00000098     maclib_secure_cc2652_2_4g.a : mac_coord.obj (.text:macBuildRealign)
                  0000c29c    00000098                                 : mac_coord.obj (.text:macIndirectMark)
                  0000c334    00000098                                 : mac_mgmt.obj (.text:macRxBeacon)
                  0000c3cc    00000098                                 : mac_scan.obj (.text:macScanRxCoordRealign)
                  0000c464    00000098                                 : mac.obj (.text:macSetupReceiveCmd)
                  0000c4fc    00000098     rom_sysbios.aem4f : rom_sysbios.obj (.text:ti_sysbios_knl_Clock_workFuncDynamic__E)
                  0000c594    00000096     rtsv7M4_T_le_v4SPD16_eabi.lib : ull_div_t2.asm.obj (.text)
                  0000c62a    00000002     drivers_cc26x2_v1.aem4f : CryptoResourceCC26XX.oem4f (.text:errorSpin)
                  0000c62c    00000094                             : PINCC26XX.oem4f (.text:PIN_open)
                  0000c6c0    00000094     maclib_secure_cc2652_2_4g.a : mac_main.obj (.text:macCbackForEvent)
                  0000c754    00000094                                 : mac_security.obj (.text:macCcmStarInverseTransform)
                  0000c7e8    00000090     npi_tl.obj (.text:NPITL_writeTL)
                  0000c878    00000090     rf_multiMode_cc26x2_v1.aem4f : RFCC26X2_multiMode.oem4f (.text:RF_discardPendCmd)
                  0000c908    00000090     maclib_secure_cc2652_2_4g.a : mac_data.obj (.text:macDataTxComplete)
                  0000c998    00000090     mt_mac.obj (.text:sendCRSP$2)
                  0000ca28    00000090     drivers_cc26x2_v1.aem4f : UARTCC26XX.oem4f (.text:writeTxFifoFlush)
                  0000cab8    0000008e                             : SPICC26XXDMA.oem4f (.text:SPICC26XXDMA_swiFxn)
                  0000cb46    00000002     maclib_secure_cc2652_2_4g.a : mac_pwr.obj (.text:macApiPwrOnReq)
                  0000cb48    0000008c     driverlib.lib : setup_rom.obj (.text:NOROM_SetupStepVddrTrimTo)
                  0000cbd4    0000008c     npi_frame_mt.obj (.text:NPIFrame_frameMsg)
                  0000cc60    0000008c     drivers_cc26x2_v1.aem4f : SPICC26XXDMA.oem4f (.text:SPICC26XXDMA_control)
                  0000ccec    0000008c                             : UARTCC26XX.oem4f (.text:UARTCC26XX_close)
                  0000cd78    0000008c                             : UARTCC26XX.oem4f (.text:UARTCC26XX_writeCancel)
                  0000ce04    0000008c     api_mac.obj (.text:copyDataInd$10)
                  0000ce90    0000008c     maclib_secure_cc2652_2_4g.a : mac_coord.obj (.text:macApiPurgeReq)
                  0000cf1c    0000008c     rom_sysbios.aem4f : rom_sysbios.obj (.text:ti_sysbios_gates_GateMutexPri_enter__E)
                  0000cfa8    0000008a     rf_multiMode_cc26x2_v1.aem4f : RFCC26X2_multiMode.oem4f (.text:RF_schChkCmdInsert)
                  0000d032    00000002     main.obj (.text:macHalAssertHandler$13)
                  0000d034    00000088     rf_multiMode_cc26x2_v1.aem4f : RFCC26X2_multiMode.oem4f (.text:RF_ratFreeChannel)
                  0000d0bc    00000088     drivers_cc26x2_v1.aem4f : PowerCC26X2_calibrateRCOSC.oem4f (.text:calibrateRcoscHf2)
                  0000d144    00000088     maclib_secure_cc2652_2_4g.a : mac_mgmt.obj (.text:macBuildCommonReq)
                  0000d1cc    00000084                                 : mac_autopend.obj (.text:MAC_SrcMatchEnable)
                  0000d250    00000084     rf_multiMode_cc26x2_v1.aem4f : RFCC26X2_multiMode.oem4f (.text:RF_hwiHw)
                  0000d2d4    00000084     maclib_secure_cc2652_2_4g.a : mac_device.obj (.text:macRxAssocRsp)
                  0000d358    00000084                                 : mac_autopend.obj (.text:macSrcMatchCheckSrcAddr$70)
                  0000d3dc    00000080     drivers_cc26x2_v1.aem4f : AESCCMCC26XX.oem4f (.text:AESCCM_open)
                  0000d45c    00000080     npi_tl_uart.obj (.text:NPITLUART_readCallBack$9)
                  0000d4dc    00000080     nvoctp.obj (.text:NVOCTP_writeItemApi$46)
                  0000d55c    00000080     drivers_cc26x2_v1.aem4f : NVSCC26XX.oem4f (.text:NVSCC26XX_open)
                  0000d5dc    00000080     rf_multiMode_cc26x2_v1.aem4f : RFCC26X2_multiMode.oem4f (.text:RF_yield)
                  0000d65c    00000080     maclib_secure_cc2652_2_4g.a : mac_coord.obj (.text:macRxDataReq)
                  0000d6dc    00000080                                 : mac_timer.obj (.text:macTimerCancel)
                  0000d75c    00000080     rom_sysbios.aem4f : rom_sysbios.obj (.text:ti_sysbios_family_arm_cc26xx_Timer_start__E)
                  0000d7dc    0000007c     drivers_cc26x2_v1.aem4f : NVSSPI25X.oem4f (.text:NVSSPI25X_close)
                  0000d858    0000007c                             : NVSSPI25X.oem4f (.text:doRead)
                  0000d8d4    0000007c     maclib_secure_cc2652_2_4g.a : mac_coord.obj (.text:macApiStartReq)
                  0000d950    0000007c                                 : mac_tx.obj (.text:macTxDoneCallback)
                  0000d9cc    0000007c                                 : mac_tx.obj (.text:txComplete)
                  0000da48    0000007c     drivers_cc26x2_v1.aem4f : PowerCC26X2_calibrateRCOSC.oem4f (.text:updateSubSecInc)
                  0000dac4    0000007a     rtsv7M4_T_le_v4SPD16_eabi.lib : memset_t2.asm.obj (.text)
                  0000db3e    00000002     maclib_secure_cc2652_2_4g.a : mac_mgmt.obj (.text:macNoAction)
                  0000db40    00000078     rf_multiMode_cc26x2_v1.aem4f : RFCC26X2_multiMode.oem4f (.text:RF_howToSchedule)
                  0000dbb8    00000078                                  : RFCC26X2_multiMode.oem4f (.text:RF_ratDispatchTime)
                  0000dc30    00000078     drivers_cc26x2_v1.aem4f : NVSSPI25X.oem4f (.text:doWriteVerify)
                  0000dca8    00000078     mt_mac.obj (.text:macAssociateReq$2)
                  0000dd20    00000078     maclib_secure_cc2652_2_4g.a : mac_scan.obj (.text:macScanStartTimer)
                  0000dd98    00000078                                 : mac_beacon_device.obj (.text:macTrackTimeoutCallback)
                  0000de10    00000078     mt_mac.obj (.text:macWriteKeyReq$2)
                  0000de88    00000076     maclib_secure_cc2652_2_4g.a : mac_security.obj (.text:macKeyDescriptorLookup)
                  0000defe    00000002                                 : mac_symbol_timer.obj (.text:macSymbolTimerICallPwrNotify$77)
                  0000df00    00000074     npi_task.obj (.text:NPITask_transportRXCallBack$7)
                  0000df74    00000074     drivers_cc26x2_v1.aem4f : PowerCC26X2_calibrateRCOSC.oem4f (.text:PowerCC26X2_auxISR)
                  0000dfe8    00000074     rf_multiMode_cc26x2_v1.aem4f : RFCC26X2_multiMode.oem4f (.text:RF_issueRadioFreeCb)
                  0000e05c    00000074     mac_user_config.obj (.text:rf_patch_mce_ieee_802_15_4$12)
                  0000e0d0    00000074     rom_sysbios.aem4f : rom_sysbios.obj (.text:ti_sysbios_gates_GateMutexPri_leave__E)
                  0000e144    00000070     maclib_secure_cc2652_2_4g.a : mac_beacon.obj (.text:macBeaconSetupCap)
                  0000e1b4    0000006e     rtsv7M4_T_le_v4SPD16_eabi.lib : ll_div_t2.asm.obj (.text)
                  0000e222    00000002                                   : div0.asm.obj (.text)
                  0000e224    0000006c     drivers_cc26x2_v1.aem4f : PINCC26XX.oem4f (.text:PIN_add)
                  0000e290    0000006c                             : UARTCC26XX.oem4f (.text:UARTCC26XX_readCancel)
                  0000e2fc    0000006c     maclib_secure_cc2652_2_4g.a : mac_hl_patch.obj (.text:macCcmDecrypt)
                  0000e368    0000006c                                 : mac_mgmt.obj (.text:macDisassocComplete)
                  0000e3d4    0000006c                                 : mac_main.obj (.text:macSendMsg)
                  0000e440    0000006c     main.obj (.text:main)
                  0000e4ac    00000068     driverlib.lib : osc.obj (.text:NOROM_OSCHF_AttemptToSwitchToXosc)
                  0000e514    00000068     npi_task.obj (.text:NPITask_task)
                  0000e57c    00000068     rf_multiMode_cc26x2_v1.aem4f : RFCC26X2_multiMode.oem4f (.text:RF_getCurrentTime)
                  0000e5e4    00000068                                  : RFCC26X2_multiMode.oem4f (.text:RF_ratDisableChannel)
                  0000e64c    00000068                                  : RFCC26X2_multiMode.oem4f (.text:RF_ratSetupChannel)
                  0000e6b4    00000068     rtsv7M4_T_le_v4SPD16_eabi.lib : copy_decompress_lzss.c.obj (.text:decompress:lzss:__TI_decompress_lzss)
                  0000e71c    00000068     maclib_secure_cc2652_2_4g.a : mac_hl_patch.obj (.text:macCcmEncrypt)
                  0000e784    00000068     mt_mac.obj (.text:macDisassociateReq$2)
                  0000e7ec    00000068     maclib_secure_cc2652_2_4g.a : mac_radio.obj (.text:macRadioUpdateTxPower)
                  0000e854    00000068                                 : mac_rx_onoff.obj (.text:macRxOn)
                  0000e8bc    00000066     rf_multiMode_cc26x2_v1.aem4f : RFCC26X2_multiMode.oem4f (.text:RF_syncCb)
                  0000e922    00000002     app_pem4f.oem4f (.text:ti_sysbios_BIOS_nullFunc__I)
                  0000e924    00000064     drivers_cc26x2_v1.aem4f : CryptoResourceCC26XX.oem4f (.text:CryptoResourceCC26XX_constructRTOSObjects)
                  0000e988    00000064                             : UARTCC26XX.oem4f (.text:UARTCC26XX_control)
                  0000e9ec    00000064     maclib_secure_cc2652_2_4g.a : mac_coord.obj (.text:macApiOrphanRsp)
                  0000ea50    00000064                                 : mac_device.obj (.text:macAssocDataRxInd)
                  0000eab4    00000064                                 : mac_mcu.obj (.text:macMcuOverflowSetPeriod)
                  0000eb18    00000064                                 : mac_device.obj (.text:macRxCoordRealign)
                  0000eb7c    00000064                                 : mac_mgmt.obj (.text:macRxDisassoc)
                  0000ebe0    00000064                                 : mac_security.obj (.text:macUpdatePanId)
                  0000ec44    00000060     drivers_cc26x2_v1.aem4f : GPIOCC26XX.oem4f (.text:GPIO_write)
                  0000eca4    00000060     nvoctp.obj (.text:NVOCTP_copyItem$46)
                  0000ed04    00000060     nvoctp.obj (.text:NVOCTP_readItemApi$46)
                  0000ed64    00000060     rf_multiMode_cc26x2_v1.aem4f : RFCC26X2_multiMode.oem4f (.text:RF_ratAllocChannel)
                  0000edc4    00000060                                  : RFCC26X2_multiMode.oem4f (.text:RF_ratArmChannel)
                  0000ee24    00000060     drivers_cc26x2_v1.aem4f : SPICC26XXDMA.oem4f (.text:SPICC26XXDMA_initHw)
                  0000ee84    00000060     mt_util.obj (.text:loopTimerCB$4)
                  0000eee4    00000060     maclib_secure_cc2652_2_4g.a : mac_beacon_coord.obj (.text:macBeaconPeriodCallback)
                  0000ef44    00000060                                 : mac_main.obj (.text:macExecute)
                  0000efa4    00000060                                 : mac_coord.obj (.text:macIndirectTxFrame)
                  0000f004    00000060                                 : mac_mcu.obj (.text:macMcuOverflowSetCompare)
                  0000f064    00000060                                 : mac_radio_tx.obj (.text:macRadioTxPrepCsmaSlottedIeee)
                  0000f0c4    00000060                                 : mac_radio_tx.obj (.text:macRadioTxPrepCsmaUnslottedIeee)
                  0000f124    00000060                                 : mac_rx.obj (.text:macRxHaltCleanup)
                  0000f184    00000060                                 : mac_scan.obj (.text:macScanComplete)
                  0000f1e4    0000005c     nvoctp.obj (.text:NVOCTP_createItemApi$46)
                  0000f240    0000005c     drivers_cc26x2_v1.aem4f : PINCC26XX.oem4f (.text:PIN_remove)
                  0000f29c    0000005c     rf_multiMode_cc26x2_v1.aem4f : RFCC26X2_multiMode.oem4f (.text:RF_dispatchNextEvent)
                  0000f2f8    0000005c                                  : RFCC26X2_multiMode.oem4f (.text:RF_fsmXOSCState)
                  0000f354    0000005c                                  : RFCC26X2_multiMode.oem4f (.text:RF_hwiCpe0PowerFsm)
                  0000f3b0    0000005c     drivers_cc26x2_v1.aem4f : NVSCC26XX.oem4f (.text:doErase)
                  0000f40c    0000005c     maclib_secure_cc2652_2_4g.a : mac_device.obj (.text:macPollDataRxInd)
                  0000f468    0000005c                                 : mac_symbol_timer.obj (.text:macSymbolTimerInit)
                  0000f4c4    0000005c                                 : mac_beacon_device.obj (.text:macTrackPeriodCallback)
                  0000f520    0000005c     app_pem4f.oem4f (.text:xdc_runtime_Startup_getState__I)
                  0000f57c    00000058     maclib_secure_cc2652_2_4g.a : mac_mgmt.obj (.text:MAC_ResumeReq)
                  0000f5d4    00000058     npi_task.obj (.text:NPITask_incomingFrameCB$7)
                  0000f62c    00000058     drivers_cc26x2_v1.aem4f : PowerCC26X2_calibrateRCOSC.oem4f (.text:PowerCC26X2_initiateCalibration)
                  0000f684    00000058     rf_multiMode_cc26x2_v1.aem4f : RFCC26X2_multiMode.oem4f (.text:RF_TxPowerTable_findValue)
                  0000f6dc    00000058                                  : RFCC26X2_multiMode.oem4f (.text:RF_cmdDispatchTime)
                  0000f734    00000058     mac_user_config.obj (.text:applyIeee802154Patch$12)
                  0000f78c    00000058     boot.aem4f : boot.oem4f (.text)
                  0000f7e4    00000058     drivers_cc26x2_v1.aem4f : PowerCC26X2.oem4f (.text:disableLFClockQualifiers)
                  0000f83c    00000058     mt_mac.obj (.text:macOrphanRsp$2)
                  0000f894    00000058     maclib_secure_cc2652_2_4g.a : mac_radio.obj (.text:macRadioUpdateChannel)
                  0000f8ec    00000058                                 : mac_timer.obj (.text:macTimerAddTimer)
                  0000f944    00000058                                 : mac_timer.obj (.text:macTimerUpdateSymbolTimer)
                  0000f99c    00000054     drivers_cc26x2_v1.aem4f : AESCCMCC26XX.oem4f (.text:AESCCM_cleanup)
                  0000f9f0    00000054                             : AESCCMCC26XX.oem4f (.text:AESCCM_waitForResult)
                  0000fa44    00000054     nvoctp.obj (.text:NVOCTP_deleteItemApi$46)
                  0000fa98    00000054     nvoctp.obj (.text:NVOCTP_doNVCRC$46)
                  0000faec    00000054     nvoctp.obj (.text:NVOCTP_readItem$46)
                  0000fb40    00000054     drivers_cc26x2_v1.aem4f : NVSCC26XX.oem4f (.text:NVSCC26XX_init)
                  0000fb94    00000054     mt_ext.obj (.text:abortFragMsg$1)
                  0000fbe8    00000054     maclib_secure_cc2652_2_4g.a : mac_device.obj (.text:macApiPollReq)
                  0000fc3c    00000054     mt_mac.obj (.text:macAssociateRsp$2)
                  0000fc90    00000054     mt_mac.obj (.text:macAsyncReq$2)
                  0000fce4    00000054     maclib_secure_cc2652_2_4g.a : mac_beacon_coord.obj (.text:macBeaconTxCallback)
                  0000fd38    00000054                                 : mac_beacon_device.obj (.text:macSyncTimeoutCallback)
                  0000fd8c    00000054     drivers_cc26x2_v1.aem4f : GPIOCC26XX.oem4f (.text:powerPostNotify)
                  0000fde0    00000054     api_mac.obj (.text:processScanCnf$10)
                  0000fe34    00000054     mcp.obj (.text:relayRxMsg$14)
                  0000fe88    00000052     drivers_cc26x2_v1.aem4f : SPICC26XXDMA.oem4f (.text:SPICC26XXDMA_close)
                  0000feda    00000002     app_pem4f.oem4f (.text:ti_sysbios_rom_cortexm_cc26xx_agama_CC26xx_badRomRevision__E)
                  0000fedc    00000050     dpl_cc26x2_v1.aem4f : ClockP_tirtos.oem4f (.text:ClockP_construct)
                  0000ff2c    00000050     drivers_cc26x2_v1.aem4f : GPIOCC26XX.oem4f (.text:GPIO_enableInt)
                  0000ff7c    00000050     npi_task.obj (.text:NPITask_createTask)
                  0000ffcc    00000050     nvoctp.obj (.text:NVOCTP_findOffset$46)
                  0001001c    00000050     rf_multiMode_cc26x2_v1.aem4f : RFCC26X2_multiMode.oem4f (.text:RF_applyRfCorePatch)
                  0001006c    00000050                                  : RFCC26X2_multiMode.oem4f (.text:RF_ratGenerateChCmd)
                  000100bc    00000050                                  : RFCC26X2_multiMode.oem4f (.text:RF_schCmdRunInsert)
                  0001010c    00000050                                  : RFCC26X2_multiMode.oem4f (.text:RF_wakeupNotification)
                  0001015c    00000050     drivers_cc26x2_v1.aem4f : PowerCC26X2.oem4f (.text:configureXOSCHF)
                  000101ac    00000050                             : NVSSPI25X.oem4f (.text:extFlashSpiRead)
                  000101fc    00000050                             : NVSSPI25X.oem4f (.text:extFlashSpiWrite)
                  0001024c    00000050     maclib_secure_cc2652_2_4g.a : mac_device.obj (.text:macAssocDataReqComplete)
                  0001029c    00000050                                 : mac_beacon_coord.obj (.text:macBeaconPrepareCallback)
                  000102ec    00000050                                 : mac_coord.obj (.text:macIndirectRequeueFrame)
                  0001033c    00000050     mt_mac.obj (.text:macPollReq$2)
                  0001038c    00000050     maclib_secure_cc2652_2_4g.a : mac_rx_onoff.obj (.text:macRxOffRequest)
                  000103dc    00000050                                 : mac_beacon_device.obj (.text:macTrackStartCallback)
                  0001042c    0000004c     mt_mac.obj (.text:MtMac_DataCnf)
                  00010478    0000004c     driverlib.lib : chipinfo.obj (.text:NOROM_ChipInfo_GetChipType)
                  000104c4    0000004c     rf_multiMode_cc26x2_v1.aem4f : RFCC26X2_multiMode.oem4f (.text:RF_ratRestartChannels)
                  00010510    0000004c     drivers_cc26x2_v1.aem4f : UDMACC26XX.oem4f (.text:UDMACC26XX_open)
                  0001055c    0000004c     rtsv7M4_T_le_v4SPD16_eabi.lib : cpy_tbl.c.obj (.text:copy_in)
                  000105a8    0000004c     drivers_cc26x2_v1.aem4f : NVSSPI25X.oem4f (.text:extFlashWaitReady)
                  000105f4    0000004c     mt_mac.obj (.text:macGetFhReq$2)
                  00010640    0000004c     maclib_secure_cc2652_2_4g.a : mac_symbol_timer.obj (.text:macSymbolTimerEventHandler$77)
                  0001068c    0000004c                                 : mac_tx.obj (.text:macTxAckNotReceivedCallback)
                  000106d8    0000004c                                 : mac_ie_parse.obj (.text:macUpdatePayloadIEPtr)
                  00010724    0000004c     drivers_cc26x2_v1.aem4f : UARTCC26XX.oem4f (.text:startTxFifoEmptyClk)
                  00010770    0000004a     macstack.obj (.text:icall_slimMsgParser)
                  000107ba    00000002     rom_sysbios.aem4f : rom_sysbios.obj (.text:xdc_runtime_SysCallback_defaultAbort)
                  000107bc    00000048     maclib_secure_cc2652_2_4g.a : mac_pib.obj (.text:MAC_MlmeGetReq)
                  00010804    00000048                                 : mac_security_pib.obj (.text:MAC_MlmeGetSecurityReqSize)
                  0001084c    00000048     driverlib.lib : aes.obj (.text:NOROM_AESStartDMAOperation)
                  00010894    00000048                   : rfc.obj (.text:NOROM_RFCSynthPowerDown)
                  000108dc    00000048     nvoctp.obj (.text:NVOCTP_write$46)
                  00010924    00000048     drivers_cc26x2_v1.aem4f : NVSSPI25X.oem4f (.text:NVSSPI25X_read)
                  0001096c    00000048                             : NVS.oem4f (.text:NVS_open)
                  000109b4    00000048                             : PINCC26XX.oem4f (.text:PIN_setOutputEnable)
                  000109fc    00000048                             : NVSCC26XX.oem4f (.text:disableFlashCache)
                  00010a44    00000048                             : NVSSPI25X.oem4f (.text:extFlashMassErase)
                  00010a8c    00000048     maclib_secure_cc2652_2_4g.a : mac_beacon_device.obj (.text:macBeaconStartFrameResponseTimer)
                  00010ad4    00000048                                 : mac_radio.obj (.text:macRadioSetChannel)
                  00010b1c    00000048                                 : mac_coord.obj (.text:macRxAssociateReq)
                  00010b64    00000048     drivers_cc26x2_v1.aem4f : UARTCC26XX.oem4f (.text:writeFinishedDoCallback)
                  00010bac    00000046                             : RingBuf.oem4f (.text:RingBuf_put)
                  00010bf2    00000002     rom_sysbios.aem4f : rom_sysbios.obj (.text:xdc_runtime_SysCallback_defaultExit)
                  00010bf4    00000044     drivers_cc26x2_v1.aem4f : CryptoResourceCC26XX.oem4f (.text:CryptoResourceCC26XX_destructRTOSObjects)
                  00010c38    00000044     driverlib.lib : osc.obj (.text:NOROM_OSCHF_SwitchToRcOscTurnOffXosc)
                  00010c7c    00000044     nvoctp.obj (.text:NVOCTP_getItemLenApi$46)
                  00010cc0    00000044     nvoctp.obj (.text:NVOCTP_setPageActive$46)
                  00010d04    00000044     drivers_cc26x2_v1.aem4f : NVSCC26XX.oem4f (.text:NVSCC26XX_read)
                  00010d48    00000044                             : PINCC26XX.oem4f (.text:PIN_swi)
                  00010d8c    00000044                             : SPICC26XXDMA.oem4f (.text:SPICC26XXDMA_csnCallback)
                  00010dd0    00000044                             : SPI.oem4f (.text:SPI_init)
                  00010e14    00000044                             : UART.oem4f (.text:UART_init)
                  00010e58    00000044     maclib_secure_cc2652_2_4g.a : mac_device.obj (.text:macAssocDataReq)
                  00010e9c    00000044                                 : mac_mgmt.obj (.text:macDestSAddrCmp)
                  00010ee0    00000044                                 : mac_device.obj (.text:macPollDataReqComplete)
                  00010f24    00000044     drivers_cc26x2_v1.aem4f : PowerCC26X2.oem4f (.text:switchXOSCHF)
                  00010f68    00000042     mt_mac.obj (.text:MtMac_CommStatusInd)
                  00010faa    00000042     api_mac.obj (.text:copyMacPanDescToApiMacPanDesc$10)
                  00010fec    00000040     maclib_secure_cc2652_2_4g.a : mac_symbol_timer.obj (.text:ICall_setTimer$77)
                  0001102c    00000040     driverlib.lib : aes.obj (.text:NOROM_AESWriteCCMInitializationVector)
                  0001106c    00000040     npi_task.obj (.text:NPITask_sendBufToStack$7)
                  000110ac    00000040     nvoctp.obj (.text:NVOCTP_compactNvApi$46)
                  000110ec    00000040     drivers_cc26x2_v1.aem4f : PowerCC26X2.oem4f (.text:PowerCC26XX_isStableXOSC_HF)
                  0001112c    00000040                             : PowerCC26X2.oem4f (.text:PowerCC26XX_switchXOSC_HF)
                  0001116c    00000040                             : RingBuf.oem4f (.text:RingBuf_get)
                  000111ac    00000040     maclib_secure_cc2652_2_4g.a : mac_hl_patch.obj (.text:macCheckPhyRate)
                  000111ec    00000040                                 : mac_device.obj (.text:macPollFrameResponseTimeout)
                  0001122c    00000040                                 : mac_radio.obj (.text:macRadioWakeupCb)
                  0001126c    00000040                                 : mac_autopend.obj (.text:macSrcMatchSetEnableBit$70)
                  000112ac    00000040     rtsv7M4_T_le_v4SPD16_eabi.lib : u_divt2.asm.obj (.text)
                  000112ec    00000040     rom_sysbios.aem4f : rom_sysbios.obj (.text:ti_sysbios_family_arm_cc26xx_Timer_setThreshold__I)
                  0001132c    0000003e     dpl_cc26x2_v1.aem4f : HwiP_tirtos.oem4f (.text:HwiP_construct)
                  0001136a    0000003e     mt_mac.obj (.text:MtMac_SyncLossInd)
                  000113a8    0000003c     drivers_cc26x2_v1.aem4f : AESCCMCC26XX.oem4f (.text:AESCCM_init)
                  000113e4    0000003c     npi_task.obj (.text:ICall_enrollService$7)
                  00011420    0000003c     driverlib.lib : chipinfo.obj (.text:NOROM_ChipInfo_GetHwRevision)
                  0001145c    0000003c     npi_tl.obj (.text:NPITL_transmissionCallBack$8)
                  00011498    0000003c     drivers_cc26x2_v1.aem4f : PINCC26XX.oem4f (.text:PINCC26XX_getConfig)
                  000114d4    0000003c                             : PINCC26XX.oem4f (.text:PIN_setOutputValue)
                  00011510    0000003c     rf_multiMode_cc26x2_v1.aem4f : RFCC26X2_multiMode.oem4f (.text:RF_calculateDispatchTime)
                  0001154c    0000003c                                  : RFCC26X2_multiMode.oem4f (.text:RF_cmdGet)
                  00011588    0000003c     drivers_cc26x2_v1.aem4f : SPI.oem4f (.text:SPI_open)
                  000115c4    0000003c     dpl_cc26x2_v1.aem4f : SwiP_tirtos.oem4f (.text:SwiP_construct)
                  00011600    0000003c     drivers_cc26x2_v1.aem4f : UART.oem4f (.text:UART_open)
                  0001163c    0000003c                             : NVSCC26XX.oem4f (.text:checkEraseRange)
                  00011678    0000003c     maclib_secure_cc2652_2_4g.a : mac_beacon.obj (.text:macBeaconRequeue)
                  000116b4    0000003c                                 : mac_rx_onoff.obj (.text:macRxDisable)
                  000116f0    0000003c                                 : mac_coord.obj (.text:macStartContinue)
                  0001172c    0000003c                                 : mac_device.obj (.text:macStartFrameResponseTimer)
                  00011768    0000003c                                 : mac_symbol_timer.obj (.text:macSymbolTimerRealignIeee)
                  000117a4    0000003c                                 : mac_main.obj (.text:mac_msg_deallocate)
                  000117e0    0000003c     rom_sysbios.aem4f : rom_sysbios.obj (.text:ti_sysbios_family_arm_m3_Hwi_construct2__E)
                  0001181c    0000003a     drivers_cc26x2_v1.aem4f : NVSSPI25X.oem4f (.text:checkEraseRange)
                  00011856    00000038     api_mac.obj (.text:ApiMac_buildMsgCapInfo)
                  0001188e    00000002     rom_sysbios.aem4f : rom_sysbios.obj (.text:xdc_runtime_SysCallback_defaultFlush)
                  00011890    00000038     macstack.obj (.text:ICall_enrollService$42)
                  000118c8    00000038     api_mac.obj (.text:ICall_sendServiceMsg$10)
                  00011900    00000038     drivers_cc26x2_v1.aem4f : PINCC26XX.oem4f (.text:PIN_setInterrupt)
                  00011938    00000038     maclib_secure_cc2652_2_4g.a : mac_device.obj (.text:macAssocFailed)
                  00011970    00000038                                 : mac_beacon_device.obj (.text:macBeaconStopTrack)
                  000119a8    00000038                                 : mac_radio.obj (.text:macGetRadioTxPowerReg)
                  000119e0    00000038                                 : mac_radio.obj (.text:macRadioSetPanCoordinator)
                  00011a18    00000038                                 : mac_symbol_timer.obj (.text:macSymbolTimerCount)
                  00011a50    00000038                                 : mac_symbol_timer.obj (.text:macSymbolTimerSetRollover)
                  00011a88    00000038     drivers_cc26x2_v1.aem4f : PowerCC26X2.oem4f (.text:notify)
                  00011ac0    00000038                             : UARTCC26XX.oem4f (.text:readData)
                  00011af8    00000038     rom_sysbios.aem4f : rom_sysbios.obj (.text:ti_sysbios_family_arm_cc26xx_Timer_getCurrentTick__E)
                  00011b30    00000038     drivers_cc26x2_v1.aem4f : UARTCC26XX.oem4f (.text:writeData)
                  00011b68    00000036     api_mac.obj (.text:ApiMac_convertCapabilityInfo)
                  00011b9e    00000036     mt_mac.obj (.text:MtMac_AssociateInd)
                  00011bd4    00000036     drivers_cc26x2_v1.aem4f : UDMACC26XX.oem4f (.text:UDMACC26XX_close)
                  00011c0a    00000002     rom_sysbios.aem4f : rom_sysbios.obj (.text:xdc_runtime_SysCallback_defaultPutch)
                  00011c0c    00000034     mt_sys.obj (.text:MtSys_resetReq)
                  00011c40    00000034     driverlib.lib : aes.obj (.text:NOROM_AESConfigureCCMCtrl)
                  00011c74    00000034                   : aes.obj (.text:NOROM_AESReadFromKeyStore)
                  00011ca8    00000034                   : aes.obj (.text:NOROM_AESReadTag)
                  00011cdc    00000034                   : sys_ctrl.obj (.text:NOROM_SysCtrlIdle)
                  00011d10    00000034     npi_rxbuf.obj (.text:NPIRxBuf_ReadFromRxBuf)
                  00011d44    00000034     nvoctp.obj (.text:NVOCTP_erase$46)
                  00011d78    00000034     drivers_cc26x2_v1.aem4f : NVSSPI25X.oem4f (.text:NVSSPI25X_init)
                  00011dac    00000034                             : PINCC26XX.oem4f (.text:PIN_setConfig)
                  00011de0    00000034                             : PowerCC26X2.oem4f (.text:Power_releaseConstraint)
                  00011e14    00000034     rf_multiMode_cc26x2_v1.aem4f : RFCC26X2_multiMode.oem4f (.text:RF_cacheFsCmd)
                  00011e48    00000034                                  : RFCC26X2_multiMode.oem4f (.text:RF_checkCmdFsError)
                  00011e7c    00000034                                  : RFCC26X2_multiMode.oem4f (.text:RF_ieeeRequestFgCommand)
                  00011eb0    00000034                                  : RFCC26X2_multiMode.oem4f (.text:RF_powerConstraintRelease)
                  00011ee4    00000034                                  : RFCC26X2_multiMode.oem4f (.text:RF_ratGenerateIoCmd)
                  00011f18    00000034                                  : RFCC26X2_multiMode.oem4f (.text:RF_runDirectImmediateCmd)
                  00011f4c    00000034     drivers_cc26x2_v1.aem4f : NVSSPI25X.oem4f (.text:extFlashPowerStandby)
                  00011f80    00000034                             : NVSSPI25X.oem4f (.text:extFlashWriteEnable)
                  00011fb4    00000034     mt_mac.obj (.text:macAdrToSba$2)
                  00011fe8    00000034     maclib_secure_cc2652_2_4g.a : mac_device.obj (.text:macAssociateCnf)
                  0001201c    00000034                                 : mac_data.obj (.text:macDataRxInd)
                  00012050    00000034                                 : mac.obj (.text:macSetUserConfig)
                  00012084    00000034                                 : mac_beacon_coord.obj (.text:macStartBeaconPrepareCallback)
                  000120b8    00000034                                 : mac_beacon_device.obj (.text:macStartBroadcastPendTimer)
                  000120ec    00000034                                 : mac.obj (.text:macStopCmd)
                  00012120    00000034                                 : mac_symbol_timer.obj (.text:macSymbolTimerSetTrigger)
                  00012154    00000034                                 : mac_tx.obj (.text:macTxDecrypt)
                  00012188    00000034                                 : mac_tx.obj (.text:macTxUpdateIE)
                  000121bc    00000034     drivers_cc26x2_v1.aem4f : UARTCC26XX.oem4f (.text:readData2RingBuf)
                  000121f0    00000034     rom_sysbios.aem4f : rom_sysbios.obj (.text:ti_sysbios_knl_Swi_setPri__E)
                  00012224    00000032     rf_multiMode_cc26x2_v1.aem4f : RFCC26X2_multiMode.oem4f (.text:RF_queueEnd)
                  00012256    00000032     maclib_secure_cc2652_2_4g.a : mac_scan.obj (.text:macScanCnfInit)
                  00012288    00000032     rom_sysbios.aem4f : rom_sysbios.obj (.text:ti_sysbios_family_arm_cc26xx_Timer_setNextTick__E)
                  000122ba    00000032                       : rom_sysbios.obj (.text:ti_sysbios_gates_GateMutexPri_insertPri__I)
                  000122ec    00000030     api_mac.obj (.text:ApiMac_mlmeGetReqArrayLen)
                  0001231c    00000030     drivers_cc26x2_v1.aem4f : GPIOCC26XX.oem4f (.text:GPIO_hwiIntFxn)
                  0001234c    00000030     npi_tl.obj (.text:NPITL_readTL)
                  0001237c    00000030     nvoctp.obj (.text:NVOCTP_setItemInactive$46)
                  000123ac    00000030     drivers_cc26x2_v1.aem4f : NVSCC26XX.oem4f (.text:NVSCC26XX_erase)
                  000123dc    00000030                             : NVSSPI25X.oem4f (.text:NVSSPI25X_erase)
                  0001240c    00000030                             : PowerCC26X2.oem4f (.text:Power_setConstraint)
                  0001243c    00000030     rf_multiMode_cc26x2_v1.aem4f : RFCC26X2_multiMode.oem4f (.text:RF_calculateDeltaTimeUs)
                  0001246c    00000030     maclib_secure_cc2652_2_4g.a : mac_coord.obj (.text:macRxOrphan)
                  0001249c    00000030                                 : mac_timer.obj (.text:macTimerSetRollover)
                  000124cc    00000030     api_mac.obj (.text:mlmeGetFhReq$10)
                  000124fc    00000030     drivers_cc26x2_v1.aem4f : PowerCC26X2_calibrateRCOSC.oem4f (.text:startTDC)
                  0001252c    00000030     app_pem4f.oem4f (.text:ti_sysbios_BIOS_atExitFunc__I)
                  0001255c    00000030     app_pem4f.oem4f (.text:ti_sysbios_BIOS_startFunc__I)
                  0001258c    00000030     rom_sysbios.aem4f : rom_sysbios.obj (.text:ti_sysbios_family_arm_cc26xx_Timer_initDevice__I)
                  000125bc    00000030     app_pem4f.oem4f (.text:ti_sysbios_gates_GateMutexPri_Object__create__S)
                  000125ec    00000030     app_pem4f.oem4f (.text:ti_sysbios_gates_GateMutexPri_create)
                  0001261c    0000002c     drivers_cc26x2_v1.aem4f : AESCCMCC26XX.oem4f (.text:AESCCM_swiFxn)
                  00012648    0000002c                             : GPIOCC26XX.oem4f (.text:GPIO_setCallback)
                  00012674    0000002c     mt_mac.obj (.text:MtMac_AssociateCnf)
                  000126a0    0000002c     mt_mac.obj (.text:MtMac_DisassociateInd)
                  000126cc    0000002c     drivers_cc26x2_v1.aem4f : NVSSPI25X.oem4f (.text:NVSSPI25X_control)
                  000126f8    0000002c                             : NVS.oem4f (.text:NVS_init)
                  00012724    0000002c                             : PINCC26XX.oem4f (.text:PINCC26XX_setMux)
                  00012750    0000002c     rf_multiMode_cc26x2_v1.aem4f : RFCC26X2_multiMode.oem4f (.text:RF_executeDirectImmediateCmd)
                  0001277c    0000002c                                  : RFCC26X2_multiMode.oem4f (.text:RF_ratReleaseChannels)
                  000127a8    0000002c     dpl_cc26x2_v1.aem4f : SemaphoreP_tirtos.oem4f (.text:SemaphoreP_constructBinary)
                  000127d4    0000002c                         : SemaphoreP_tirtos.oem4f (.text:SemaphoreP_createBinary)
                  00012800    0000002c     drivers_cc26x2_v1.aem4f : NVSSPI25X.oem4f (.text:extFlashPowerDown)
                  0001282c    0000002c     maclib_secure_cc2652_2_4g.a : mac_beacon.obj (.text:macBeaconInit)
                  00012858    0000002c                                 : mac_pib.obj (.text:macPibReset)
                  00012884    0000002c                                 : mac_radio.obj (.text:macRadioSetIEEEAddr)
                  000128b0    0000002c                                 : mac_radio.obj (.text:macRadioStopScan)
                  000128dc    0000002c                                 : mac_symbol_timer.obj (.text:macSymbolTimerICallTimerCback$77)
                  00012908    0000002c     mt_ext.obj (.text:sendStatus$1)
                  00012934    0000002c     rom_sysbios.aem4f : rom_sysbios.obj (.text:ti_sysbios_knl_Clock_getTicksUntilInterrupt__E)
                  00012960    0000002c     maclib_secure_cc2652_2_4g.a : mac_tx.obj (.text:txGo$78)
                  0001298c    0000002a     drivers_cc26x2_v1.aem4f : List.oem4f (.text:List_insert)
                  000129b6    0000002a     nvoctp.obj (.text:NVOCTP_verifyCRC$46)
                  000129e0    0000002a     rf_multiMode_cc26x2_v1.aem4f : RFCC26X2_multiMode.oem4f (.text:RF_ratSuspendChannels)
                  00012a0a    0000002a     rom_sysbios.aem4f : rom_sysbios.obj (.text:ti_sysbios_knl_Clock_getTimeout__E)
                  00012a34    00000028     npi_frame_mt.obj (.text:ICall_allocMsg$5)
                  00012a5c    00000028     mt_ext.obj (.text:ICall_malloc$1)
                  00012a84    00000028     mt_mac.obj (.text:ICall_malloc$2)
                  00012aac    00000028     npi_task.obj (.text:ICall_malloc$7)
                  00012ad4    00000028     maclib_secure_cc2652_2_4g.a : mac_security_pib.obj (.text:MAC_MlmeGetPointerSecurityReq)
                  00012afc    00000028     mt_mac.obj (.text:MtMac_DisassociateCnf)
                  00012b24    00000028     driverlib.lib : aes.obj (.text:NOROM_AESVerifyTag)
                  00012b4c    00000028                   : aes.obj (.text:NOROM_AESWaitForIRQFlags)
                  00012b74    00000028                   : osc.obj (.text:NOROM_OSCHF_TurnOnXosc)
                  00012b9c    00000028                   : rfc.obj (.text:NOROM_RFCOverrideSearch)
                  00012bc4    00000028     npi_tl_uart.obj (.text:NPITLUART_writeCallBack$9)
                  00012bec    00000028     dpl_cc26x2_v1.aem4f : PowerCC26X2_tirtos.oem4f (.text:PowerCC26XX_schedulerDisable)
                  00012c14    00000028                         : PowerCC26X2_tirtos.oem4f (.text:PowerCC26XX_schedulerRestore)
                  00012c3c    00000028     drivers_cc26x2_v1.aem4f : PowerCC26X2.oem4f (.text:Power_registerNotify)
                  00012c64    00000028                             : SPICC26XXDMA.oem4f (.text:SPICC26XXDMA_flushFifos)
                  00012c8c    00000028     maclib_secure_cc2652_2_4g.a : mac_mgmt.obj (.text:macApiPending)
                  00012cb4    00000028                                 : mac_beacon.obj (.text:macBeaconCheckSched)
                  00012cdc    00000028                                 : mac_mgmt.obj (.text:macCoordAddrCmp)
                  00012d04    00000028                                 : mac_mgmt.obj (.text:macGetCoordAddress)
                  00012d2c    00000028                                 : mac_rx_onoff.obj (.text:macRxHardDisable)
                  00012d54    00000028                                 : mac_coord.obj (.text:macStartComplete)
                  00012d7c    00000028                                 : mac_timer.obj (.text:macTimerRecalcUnaligned)
                  00012da4    00000028                                 : mac_tx.obj (.text:macTxTimestampCallback)
                  00012dcc    00000028     drivers_cc26x2_v1.aem4f : PowerCC26X2.oem4f (.text:oscillatorISR)
                  00012df4    00000028                             : NVSCC26XX.oem4f (.text:restoreFlashCache)
                  00012e1c    00000026                             : List.oem4f (.text:List_put)
                  00012e42    00000026                             : List.oem4f (.text:List_putHead)
                  00012e68    00000026                             : List.oem4f (.text:List_remove)
                  00012e8e    00000026     mt_mac.obj (.text:MtMac_OrphanInd)
                  00012eb4    00000026     maclib_secure_cc2652_2_4g.a : mac_radio.obj (.text:radioComputeED$73)
                  00012eda    00000002     --HOLE-- [fill = 0]
                  00012edc    00000024     drivers_cc26x2_v1.aem4f : AESCCMCC26XX.oem4f (.text:AESCCM_hwiFxn)
                  00012f00    00000024     mt_mac.obj (.text:MtMac_PollInd)
                  00012f24    00000024     driverlib.lib : rfc.obj (.text:NOROM_RFCDoorbellSendTo)
                  00012f48    00000024     npi_task.obj (.text:NPITask_transportTxDoneCallBack$7)
                  00012f6c    00000024     rf_multiMode_cc26x2_v1.aem4f : RFCC26X2_multiMode.oem4f (.text:RF_clkPowerUp)
                  00012f90    00000024                                  : RFCC26X2_multiMode.oem4f (.text:RF_cmdAlloc)
                  00012fb4    00000024                                  : RFCC26X2_multiMode.oem4f (.text:RF_getPAOverrideOffsetAndValue)
                  00012fd8    00000024                                  : RFCC26X2_multiMode.oem4f (.text:RF_invokeGlobalCallback)
                  00012ffc    00000024     drivers_cc26x2_v1.aem4f : PowerCC26X2_calibrateRCOSC.oem4f (.text:getTdcSemaphore)
                  00013020    00000024     maclib_secure_cc2652_2_4g.a : mac_device.obj (.text:macAssocFrameResponseTimeout)
                  00013044    00000024                                 : mac_beacon.obj (.text:macBeaconReset)
                  00013068    00000024                                 : mac_rx_onoff.obj (.text:macRxSoftDisable)
                  0001308c    00000024                                 : mac_timer.obj (.text:macTimerAligned)
                  000130b0    00000024     rtsv7M4_T_le_v4SPD16_eabi.lib : memcmp.c.obj (.text:memcmp)
                  000130d4    00000024     app_pem4f.oem4f (.text:ti_sysbios_BIOS_registerRTSLock__I)
                  000130f8    00000024     app_pem4f.oem4f (.text:ti_sysbios_BIOS_removeRTSLock__I)
                  0001311c    00000024     rom_sysbios.aem4f : rom_sysbios.obj (.text:ti_sysbios_family_arm_cc26xx_Timer_getMaxTicks__E)
                  00013140    00000024     app_pem4f.oem4f (.text:ti_sysbios_gates_GateMutexPri_Object__delete__S)
                  00013164    00000022     drivers_cc26x2_v1.aem4f : List.oem4f (.text:List_get)
                  00013186    00000022     rf_multiMode_cc26x2_v1.aem4f : RFCC26X2_multiMode.oem4f (.text:RF_isRadioSetup)
                  000131a8    00000022     maclib_secure_cc2652_2_4g.a : mac_data.obj (.text:macFrameDurationIeee)
                  000131ca    00000002     --HOLE-- [fill = 0]
                  000131cc    00000020     api_mac.obj (.text:ICall_free$10)
                  000131ec    00000020     mt_ext.obj (.text:ICall_free$1)
                  0001320c    00000020     mt_mac.obj (.text:ICall_free$2)
                  0001322c    00000020     npi_task.obj (.text:ICall_free$7)
                  0001324c    00000020     npi_frame_mt.obj (.text:ICall_freeMsg$5)
                  0001326c    00000020     npi_task.obj (.text:ICall_freeMsg$7)
                  0001328c    00000020     maclib_secure_cc2652_2_4g.a : mac_symbol_timer.obj (.text:ICall_signal$77)
                  000132ac    00000020                                 : mac_autopend.obj (.text:MAC_SrcMatchAckAllPending)
                  000132cc    00000020     npi_rxbuf.obj (.text:NPIRxBuf_GetRxBufCount)
                  000132ec    00000020     npi_tl.obj (.text:NPITL_getRxBufLen)
                  0001330c    00000020     drivers_cc26x2_v1.aem4f : PowerCC26X2.oem4f (.text:Power_unregisterNotify)
                  0001332c    00000020     rf_multiMode_cc26x2_v1.aem4f : RFCC26X2_multiMode.oem4f (.text:RF_getSwitchingTimeInUs)
                  0001334c    00000020                                  : RFCC26X2_multiMode.oem4f (.text:RF_hwiCpe0ChangePhy)
                  0001336c    00000020                                  : RFCC26X2_multiMode.oem4f (.text:RF_ratIsRunning)
                  0001338c    00000020                                  : RFCC26X2_multiMode.oem4f (.text:RF_swiFsm)
                  000133ac    00000020     crc.obj (.text:crc_update)
                  000133cc    00000020     maclib_secure_cc2652_2_4g.a : mac_beacon_coord.obj (.text:macBeaconCoordReset)
                  000133ec    00000020                                 : mac_beacon_coord.obj (.text:macBeaconSetPrepareTime)
                  0001340c    00000020                                 : mac_data.obj (.text:macDataRxMemAlloc)
                  0001342c    00000020                                 : mac_data.obj (.text:macDataSend)
                  0001344c    00000020                                 : mac_radio.obj (.text:macGetRadioState)
                  0001346c    00000020                                 : mac_radio.obj (.text:macRadioSetShortAddr)
                  0001348c    00000020                                 : mac_radio.obj (.text:macRadioSwInit)
                  000134ac    00000020                                 : mac_coord.obj (.text:macRxBeaconReq)
                  000134cc    00000020                                 : mac_rx_onoff.obj (.text:macRxOff)
                  000134ec    00000020                                 : mac_rx_onoff.obj (.text:macRxSoftEnable)
                  0001350c    00000020     mt_mac.obj (.text:macSbaToAdr$2)
                  0001352c    00000020     maclib_secure_cc2652_2_4g.a : mac.obj (.text:macSendFsCmd)
                  0001354c    00000020                                 : mac_timer.obj (.text:macTimer)
                  0001356c    00000020     app_pem4f.oem4f (.text:ti_sysbios_BIOS_rtsLock__I)
                  0001358c    00000020     rom_sysbios.aem4f : rom_sysbios.obj (.text:ti_sysbios_family_arm_cc26xx_Timer_dynamicStub__E)
                  000135ac    0000001e     drivers_cc26x2_v1.aem4f : PINCC26XX.oem4f (.text:PIN_close)
                  000135ca    0000001e                             : PowerCC26X2.oem4f (.text:Power_getTransitionLatency)
                  000135e8    0000001e     rf_multiMode_cc26x2_v1.aem4f : RFCC26X2_multiMode.oem4f (.text:RF_searchAndReplacePAOverride)
                  00013606    0000001e     maclib_secure_cc2652_2_4g.a : mac_hl_patch.obj (.text:macPibIndex)
                  00013624    0000001e                                 : mac_scan.obj (.text:macScanFailedInProgress)
                  00013642    0000001e                                 : mac_timer.obj (.text:macTimerRemoveTimer)
                  00013660    0000001e     mt_sys.obj (.text:parseNvExtId$3)
                  0001367e    0000001c     drivers_cc26x2_v1.aem4f : AESCCMCC26XX.oem4f (.text:AESCCM_close)
                  0001369a    00000002     --HOLE-- [fill = 0]
                  0001369c    0000001c     maclib_secure_cc2652_2_4g.a : mac_pib.obj (.text:MAC_MlmeGetReqSize)
                  000136b8    0000001c     driverlib.lib : chipinfo.obj (.text:NOROM_ChipInfo_GetChipFamily)
                  000136d4    0000001c                   : flash.obj (.text:NOROM_FlashProgram)
                  000136f0    0000001c                   : flash.obj (.text:NOROM_FlashSectorErase)
                  0001370c    0000001c     nvoctp.obj (.text:NVOCTP_writeByte$46)
                  00013728    0000001c     drivers_cc26x2_v1.aem4f : NVSCC26XX.oem4f (.text:NVSCC26XX_getAttrs)
                  00013744    0000001c                             : NVSCC26XX.oem4f (.text:NVSCC26XX_lock)
                  00013760    0000001c                             : NVSSPI25X.oem4f (.text:NVSSPI25X_initSpiCs)
                  0001377c    0000001c                             : NVSSPI25X.oem4f (.text:NVSSPI25X_lock)
                  00013798    0000001c                             : PINCC26XX.oem4f (.text:PINCC26XX_setIoCfgMux)
                  000137b4    0000001c                             : PINCC26XX.oem4f (.text:PIN_hwi)
                  000137d0    0000001c     rf_multiMode_cc26x2_v1.aem4f : RFCC26X2_multiMode.oem4f (.text:RF_clkInactivity)
                  000137ec    0000001c                                  : RFCC26X2_multiMode.oem4f (.text:RF_getRssi)
                  00013808    0000001c                                  : RFCC26X2_multiMode.oem4f (.text:RF_powerConstraintSet)
                  00013824    0000001c     drivers_cc26x2_v1.aem4f : UDMACC26XX.oem4f (.text:UDMACC26XX_initHw)
                  00013840    0000001c     maclib_secure_cc2652_2_4g.a : mac_mgmt.obj (.text:macConflictSyncLossInd)
                  0001385c    0000001c                                 : mac_mcu.obj (.text:macMcuTimerCapture)
                  00013878    0000001c                                 : mac_device.obj (.text:macPollRxDisassoc)
                  00013894    0000001c                                 : mac_radio.obj (.text:macRadioSetPanID)
                  000138b0    0000001c                                 : mac_rx.obj (.text:macRxAckTxDoneCallback)
                  000138cc    0000001c     mt_mac.obj (.text:macSbaToSec$2)
                  000138e8    0000001c     mt_mac.obj (.text:macSecToSba$2)
                  00013904    0000001c     maclib_secure_cc2652_2_4g.a : mac_symbol_timer.obj (.text:macSymbolTimerSetTriggerRollover)
                  00013920    0000001c                                 : mac_rx.obj (.text:rxDone$74)
                  0001393c    0000001c     app_pem4f.oem4f (.text:ti_sysbios_BIOS_errorRaiseHook__I)
                  00013958    0000001c     rom_sysbios.aem4f : rom_sysbios.obj (.text:ti_sysbios_knl_Swi_construct2__E)
                  00013974    0000001a     mt_mac.obj (.text:MtMac_PollCnf)
                  0001398e    0000001a     mt_mac.obj (.text:MtMac_PurgeCnf)
                  000139a8    0000001a     drivers_cc26x2_v1.aem4f : PowerCC26X2.oem4f (.text:PowerCC26XX_calibrate)
                  000139c2    0000001a     rf_multiMode_cc26x2_v1.aem4f : RFCC26X2_multiMode.oem4f (.text:RF_findEndOfChain)
                  000139dc    0000001a     api_mac.obj (.text:copyApiMacAddrToMacAddr)
                  000139f6    0000001a     maclib_secure_cc2652_2_4g.a : mac_low_level.obj (.text:macLowLevelDiags)
                  00013a10    00000018     drivers_cc26x2_v1.aem4f : AESCCMCC26XX.oem4f (.text:AESCCM_waitForAccess)
                  00013a28    00000018     api_mac.obj (.text:ApiMac_mlmeSetReqArray)
                  00013a40    00000018     driverlib.lib : chipinfo.obj (.text:NOROM_ChipInfo_GetPackageType)
                  00013a58    00000018     drivers_cc26x2_v1.aem4f : PINCC26XX.oem4f (.text:PIN_getConfig)
                  00013a70    00000018                             : PowerCC26X2.oem4f (.text:Power_idleFunc)
                  00013a88    00000018                             : UARTCC26XX.oem4f (.text:UARTCC26XX_init)
                  00013aa0    00000018                             : UART.oem4f (.text:UART_Params_init)
                  00013ab8    00000018     rtsv7M4_T_le_v4SPD16_eabi.lib : args_main.c.obj (.text:_args_main)
                  00013ad0    00000018     api_mac.obj (.text:copyMacAddrToApiMacAddr$10)
                  00013ae8    00000018     maclib_secure_cc2652_2_4g.a : mac_mgmt.obj (.text:macGetMyAddrMode)
                  00013b00    00000018                                 : mac_device.obj (.text:macPollCnf)
                  00013b18    00000018                                 : mac_device.obj (.text:macPollRxAssocRsp)
                  00013b30    00000018                                 : mac_rx_onoff.obj (.text:macRxOnRequest)
                  00013b48    00000018                                 : mac_device.obj (.text:macStartResponseTimer)
                  00013b60    00000018                                 : mac_main.obj (.text:macStateIdleOrPolling)
                  00013b78    00000018                                 : mac_symbol_timer.obj (.text:macSymbolTimerRestore)
                  00013b90    00000018                                 : mac_timer.obj (.text:macTimerInit)
                  00013ba8    00000018                                 : macwrapper.obj (.text:macWrapper8ByteUnused)
                  00013bc0    00000018     api_mac.obj (.text:mlmeSetFhReq$10)
                  00013bd8    00000018     npi_frame_mt.obj (.text:npiframe_calcMTFCS$5)
                  00013bf0    00000018     rtsv7M4_T_le_v4SPD16_eabi.lib : ll_mul_t2.asm.obj (.text)
                  00013c08    00000018     app_pem4f.oem4f (.text:ti_sysbios_BIOS_rtsUnlock__I)
                  00013c20    00000018     app_pem4f.oem4f (.text:ti_sysbios_gates_GateMutexPri_Handle__label__S)
                  00013c38    00000018     rom_sysbios.aem4f : rom_sysbios.obj (.text:ti_sysbios_gates_GateMutexPri_Instance_init__E)
                  00013c50    00000018                       : rom_sysbios.obj (.text:ti_sysbios_knl_Swi_or__E)
                  00013c68    00000018     app_pem4f.oem4f (.text:ti_sysbios_rom_cortexm_cc26xx_agama_CC26xx_checkRevision__E)
                  00013c80    00000018     app_pem4f.oem4f (.text:xdc_runtime_Startup_exec__I)
                  00013c98    00000016     rf_multiMode_cc26x2_v1.aem4f : RFCC26X2_multiMode.oem4f (.text:RF_cancelCmd)
                  00013cae    00000016                                  : RFCC26X2_multiMode.oem4f (.text:RF_restartClockTimeout)
                  00013cc4    00000016     app_pem4f.oem4f (.text:ti_sysbios_BIOS_exitFunc__I)
                  00013cda    00000016     rom_sysbios.aem4f : rom_sysbios.obj (.text:ti_sysbios_knl_Task_block__E)
                  00013cf0    00000014     api_mac.obj (.text:ApiMac_enableFH)
                  00013d04    00000014     api_mac.obj (.text:ApiMac_mlmeResetReq)
                  00013d18    00000014     api_mac.obj (.text:ApiMac_randomByte)
                  00013d2c    00000014     drivers_cc26x2_v1.aem4f : List.oem4f (.text:List_clearList)
                  00013d40    00000014     macstack.obj (.text:MAC_CbackQueryRetransmit)
                  00013d54    00000014     maclib_secure_cc2652_2_4g.a : mac_autopend.obj (.text:MAC_SrcMatchCheckAllPending)
                  00013d68    00000014     mt_mac.obj (.text:MtMac_AsyncCnf)
                  00013d7c    00000014     mt_mac.obj (.text:MtMac_StartCnf)
                  00013d90    00000014     driverlib.lib : rfc.obj (.text:NOROM_RFCCpeIntGetAndClear)
                  00013da4    00000014     drivers_cc26x2_v1.aem4f : PowerCC26X2_calibrateRCOSC.oem4f (.text:PowerCC26X2_calibrate)
                  00013db8    00000014     rf_multiMode_cc26x2_v1.aem4f : RFCC26X2_multiMode.oem4f (.text:RF_Params_init)
                  00013dcc    00000014                                  : RFCC26X2_multiMode.oem4f (.text:RF_RatConfigCompare_init)
                  00013de0    00000014                                  : RFCC26X2_multiMode.oem4f (.text:RF_dbellSyncOnAck)
                  00013df4    00000014                                  : RFCC26X2_multiMode.oem4f (.text:RF_flushCmd)
                  00013e08    00000014                                  : RFCC26X2_multiMode.oem4f (.text:RF_ratCompare)
                  00013e1c    00000014                                  : RFCC26X2_multiMode.oem4f (.text:RF_ratGetChannel)
                  00013e30    00000014                                  : RFCC26X2_multiMode.oem4f (.text:RF_triggDispatcher)
                  00013e44    00000014     drivers_cc26x2_v1.aem4f : SPI.oem4f (.text:SPI_Params_init)
                  00013e58    00000014     mt_sys.obj (.text:SysCtrlSystemReset$3)
                  00013e6c    00000014     drivers_cc26x2_v1.aem4f : PowerCC26X2.oem4f (.text:configureRFCoreClocks)
                  00013e80    00000014     maclib_secure_cc2652_2_4g.a : mac_main.obj (.text:macMainReserve)
                  00013e94    00000014                                 : mac_mcu.obj (.text:macMcuInit)
                  00013ea8    00000014                                 : mac_mcu.obj (.text:macMcuOverflowCapture)
                  00013ebc    00000014                                 : mac_coord.obj (.text:macRxPanConflict)
                  00013ed0    00000014                                 : mac_autopend.obj (.text:macSrcMatchGetEnableBit$70)
                  00013ee4    00000014                                 : mac_main.obj (.text:macStateScanning)
                  00013ef8    00000014     mcp.obj (.text:relayTxMsg$14)
                  00013f0c    00000014     maclib_secure_cc2652_2_4g.a : mac_rx.obj (.text:rxDiscardFrame$74)
                  00013f20    00000014     mt_mac.obj (.text:sendSRSP$2)
                  00013f34    00000014     mt_sys.obj (.text:sendSRSP$3)
                  00013f48    00000014     rom_sysbios.aem4f : rom_sysbios.obj (.text:ti_sysbios_family_arm_cc26xx_Timer_getCount64__E)
                  00013f5c    00000014     app_pem4f.oem4f (.text:ti_sysbios_knl_Clock_doTick__I)
                  00013f70    00000012     drivers_cc26x2_v1.aem4f : NVSSPI25X.oem4f (.text:NVSSPI25X_assertSpiCs)
                  00013f82    00000012                             : NVSSPI25X.oem4f (.text:NVSSPI25X_deassertSpiCs)
                  00013f94    00000012                             : NVSSPI25X.oem4f (.text:NVSSPI25X_getAttrs)
                  00013fa6    00000012     rf_multiMode_cc26x2_v1.aem4f : RFCC26X2_multiMode.oem4f (.text:RF_getCmdOp)
                  00013fb8    00000012     drivers_cc26x2_v1.aem4f : RingBuf.oem4f (.text:RingBuf_construct)
                  00013fca    00000012     dpl_cc26x2_v1.aem4f : SemaphoreP_tirtos.oem4f (.text:SemaphoreP_pend)
                  00013fdc    00000012     maclib_secure_cc2652_2_4g.a : mac_radio.obj (.text:macRadioSetTxPower)
                  00013fee    00000012                                 : mac_security_pib.obj (.text:macSecurityPibIndex)
                  00014000    00000012     mt_sys.obj (.text:mapNvError$3)
                  00014012    00000002     --HOLE-- [fill = 0]
                  00014014    00000010     drivers_cc26x2_v1.aem4f : AESCCM.oem4f (.text:AESCCM_Params_init)
                  00014024    00000010     dpl_cc26x2_v1.aem4f : ClockP_tirtos.oem4f (.text:ClockP_isActive)
                  00014034    00000010                         : HwiP_tirtos.oem4f (.text:HwiP_Params_init)
                  00014044    00000010     maclib_secure_cc2652_2_4g.a : mac_coord.obj (.text:MAC_McpsPurgeReq)
                  00014054    00000010     driverlib.lib : rfc.obj (.text:NOROM_RFCHwIntGetAndClear)
                  00014064    00000010     drivers_cc26x2_v1.aem4f : PINCC26XX.oem4f (.text:PINCC26XX_getPinCount)
                  00014074    00000010     rf_multiMode_cc26x2_v1.aem4f : RFCC26X2_multiMode.oem4f (.text:RF_dbellSubmitCmdAsync)
                  00014084    00000010                                  : RFCC26X2_multiMode.oem4f (.text:RF_isClientOwner)
                  00014094    00000010                                  : RFCC26X2_multiMode.oem4f (.text:RF_ratGetChannelValue)
                  000140a4    00000010     dpl_cc26x2_v1.aem4f : SwiP_tirtos.oem4f (.text:SwiP_Params_init)
                  000140b4    00000010     maclib_secure_cc2652_2_4g.a : mac_device.obj (.text:macAssocRxDisassoc)
                  000140c4    00000010                                 : mac_data.obj (.text:macCheckSched)
                  000140d4    00000010                                 : mac_rx_onoff.obj (.text:macRxEnable)
                  000140e4    00000010                                 : mac_main.obj (.text:macSetEvent16)
                  000140f4    00000010                                 : mac_main.obj (.text:macSetEvent)
                  00014104    00000010     rom_sysbios.aem4f : rom_sysbios.obj (.text:ti_sysbios_family_arm_m3_Hwi_post__E)
                  00014114    00000010                       : rom_sysbios.obj (.text:ti_sysbios_gates_GateMutexPri_Instance_finalize__E)
                  00014124    00000010     drivers_cc26x2_v1.aem4f : UARTCC26XX.oem4f (.text:uartPostNotify)
                  00014134    00000010     rom_sysbios.aem4f : rom_sysbios.obj (.text:xdc_runtime_SysCallback_flush__E)
                  00014144    00000010                       : rom_sysbios.obj (.text:xdc_runtime_SysCallback_putch__E)
                  00014154    00000010                       : rom_sysbios.obj (.text:xdc_runtime_SysCallback_ready__E)
                  00014164    0000000e     drivers_cc26x2_v1.aem4f : CryptoKeyPlaintextCC26XX.oem4f (.text:CryptoKeyPlaintext_initKey)
                  00014172    0000000e                             : NVS.oem4f (.text:NVS_write)
                  00014180    0000000e     rf_multiMode_cc26x2_v1.aem4f : RFCC26X2_multiMode.oem4f (.text:RF_ScheduleCmdParams_init)
                  0001418e    0000000e     drivers_cc26x2_v1.aem4f : SPICC26XXDMA.oem4f (.text:SPICC26XXDMA_init)
                  0001419c    0000000e     rtsv7M4_T_le_v4SPD16_eabi.lib : copy_decompress_none.c.obj (.text:decompress:none:__TI_decompress_none)
                  000141aa    0000000e     rom_sysbios.aem4f : rom_sysbios.obj (.text:ti_sysbios_family_arm_cc26xx_TimestampProvider_get32__E)
                  000141b8    0000000c     driverlib.lib : cpu.obj (.text:NOROM_CPUcpsid)
                  000141c4    0000000c                   : cpu.obj (.text:NOROM_CPUcpsie)
                  000141d0    0000000c     npi_tl.obj (.text:NPITL_checkNpiBusy)
                  000141dc    0000000c     nvoctp.obj (.text:NVOCTP_doRAMCRC$46)
                  000141e8    0000000c     drivers_cc26x2_v1.aem4f : NVSCC26XX.oem4f (.text:NVSCC26XX_unlock)
                  000141f4    0000000c                             : NVSSPI25X.oem4f (.text:NVSSPI25X_unlock)
                  00014200    0000000c                             : PINCC26XX.oem4f (.text:PIN_registerIntCb)
                  0001420c    0000000c                             : PowerCC26X2.oem4f (.text:Power_getConstraintMask)
                  00014218    0000000c                             : PowerCC26X2.oem4f (.text:Power_getDependencyCount)
                  00014224    0000000c                             : PowerCC26X2.oem4f (.text:Power_getTransitionState)
                  00014230    0000000c     rf_multiMode_cc26x2_v1.aem4f : RFCC26X2_multiMode.oem4f (.text:RF_powerConstraintGet)
                  0001423c    0000000c                                  : RFCC26X2_multiMode.oem4f (.text:RF_ratGetValue)
                  00014248    0000000c     dpl_cc26x2_v1.aem4f : SemaphoreP_tirtos.oem4f (.text:SemaphoreP_delete)
                  00014254    0000000c     rtsv7M4_T_le_v4SPD16_eabi.lib : _lock.c.obj (.text:_register_lock)
                  00014260    0000000c                                   : _lock.c.obj (.text:_register_unlock)
                  0001426c    0000000c     mt_mac.obj (.text:copyExtAdr$2)
                  00014278    0000000c     rtsv7M4_T_le_v4SPD16_eabi.lib : copy_zero_init.c.obj (.text:decompress:ZI:__TI_zero_init)
                  00014284    0000000c     maclib_secure_cc2652_2_4g.a : mac_data.obj (.text:macDataRxMemFree)
                  00014290    0000000c                                 : mac_mgmt.obj (.text:macIsCsmOperational)
                  0001429c    0000000c                                 : mac_radio_tx.obj (.text:macRadioTxCancelAckTimeout)
                  000142a8    0000000c                                 : mac_radio_tx.obj (.text:macRadioTxCancelTxAck)
                  000142b4    0000000c                                 : mac.obj (.text:macSetupFsCmd)
                  000142c0    0000000c     mt_mac.obj (.text:sendDRSP$2)
                  000142cc    0000000c     mt_sys.obj (.text:sendDRSP$3)
                  000142d8    0000000c     mt_util.obj (.text:sendSRSP$4)
                  000142e4    0000000c     drivers_cc26x2_v1.aem4f : SPICC26XXDMA.oem4f (.text:spiPostNotify)
                  000142f0    0000000c     rom_sysbios.aem4f : rom_sysbios.obj (.text:ti_sysbios_BIOS_getThreadType__E)
                  000142fc    0000000c     app_pem4f.oem4f (.text:ti_sysbios_gates_GateMutexPri_Params__init__S)
                  00014308    0000000c     rom_sysbios.aem4f : rom_sysbios_config.obj (.text:ti_sysbios_hal_Hwi_Params__init__S)
                  00014314    0000000c                       : rom_sysbios.obj (.text:ti_sysbios_knl_Swi_getTrigger__E)
                  00014320    0000000c     main.obj (.text:userAssertHandler$13)
                  0001432c    0000000c     app_pem4f.oem4f (.text:xdc_runtime_Startup_reset__I)
                  00014338    0000000a     dpl_cc26x2_v1.aem4f : ClockP_tirtos.oem4f (.text:ClockP_Params_init)
                  00014342    0000000a     maclib_secure_cc2652_2_4g.a : mac_device.obj (.text:MAC_MlmeAssociateReq)
                  0001434c    0000000a                                 : mac_coord.obj (.text:MAC_MlmeAssociateRsp)
                  00014356    0000000a                                 : mac_mgmt.obj (.text:MAC_MlmeDisassociateReq)
                  00014360    0000000a                                 : mac_coord.obj (.text:MAC_MlmeOrphanRsp)
                  0001436a    0000000a                                 : mac_mgmt.obj (.text:MAC_MlmeWSAsyncReq)
                  00014374    0000000a     drivers_cc26x2_v1.aem4f : NVS.oem4f (.text:NVS_erase)
                  0001437e    0000000a                             : NVS.oem4f (.text:NVS_getAttrs)
                  00014388    0000000a                             : NVS.oem4f (.text:NVS_read)
                  00014392    0000000a                             : SPI.oem4f (.text:SPI_close)
                  0001439c    0000000a                             : SPI.oem4f (.text:SPI_transfer)
                  000143a6    0000000a                             : UART.oem4f (.text:UART_control)
                  000143b0    0000000a                             : UART.oem4f (.text:UART_read)
                  000143ba    0000000a                             : UART.oem4f (.text:UART_write)
                  000143c4    0000000a                             : UDMACC26XX.oem4f (.text:UDMACC26XX_hwiIntFxn)
                  000143ce    0000000a     maclib_secure_cc2652_2_4g.a : mac_mcu.obj (.text:macMcuRandomByte)
                  000143d8    0000000a                                 : mac_data.obj (.text:macSetSched)
                  000143e2    00000008     drivers_cc26x2_v1.aem4f : AESCCM.oem4f (.text:AESCCM_Operation_init)
                  000143ea    00000008     maclib_secure_cc2652_2_4g.a : mac_device.obj (.text:MAC_MlmePollReq)
                  000143f2    00000008                                 : mac_coord.obj (.text:MAC_MlmeStartReq)
                  000143fa    00000008                                 : mac_mgmt.obj (.text:MAC_MlmeSyncReq)
                  00014402    00000008     mt_mac.obj (.text:MtMac_AsyncInd)
                  0001440a    00000008     mt_mac.obj (.text:MtMac_DataInd)
                  00014412    00000008     drivers_cc26x2_v1.aem4f : NVSCC26XX.oem4f (.text:NVSCC26XX_close)
                  0001441a    00000008                             : SPICC26XXDMA.oem4f (.text:SPICC26XXDMA_transferCallback)
                  00014422    00000002     --HOLE-- [fill = 0]
                  00014424    00000008     maclib_secure_cc2652_2_4g.a : mac_pib.obj (.text:macIEEEGetPhyDesc)
                  0001442c    00000008     drivers_cc26x2_v1.aem4f : UARTCC26XX.oem4f (.text:readSemCallback)
                  00014434    00000008                             : UARTCC26XX.oem4f (.text:writeSemCallback)
                  0001443c    00000006                             : AESCCMCC26XX.oem4f (.text:AESCCM_oneStepDecrypt)
                  00014442    00000006                             : AESCCMCC26XX.oem4f (.text:AESCCM_oneStepEncrypt)
                  00014448    00000006     main.obj (.text:Main_excHandler)
                  0001444e    00000006     main.obj (.text:Main_halAssertHandler)
                  00014454    00000006     driverlib.lib : cpu.obj (.text:NOROM_CPUdelay)
                  0001445a    00000006     drivers_cc26x2_v1.aem4f : NVSCC26XX.oem4f (.text:NVSCC26XX_control)
                  00014460    00000006     rf_multiMode_cc26x2_v1.aem4f : RFCC26X2_multiMode.oem4f (.text:RF_clkReqAccess)
                  00014466    00000006                                  : RFCC26X2_multiMode.oem4f (.text:RF_runDirectCmd)
                  0001446c    00000006                                  : RFCC26X2_multiMode.oem4f (.text:RF_runImmediateCmd)
                  00014472    00000006     drivers_cc26x2_v1.aem4f : UARTCC26XX.oem4f (.text:UARTCC26XX_readPolling)
                  00014478    00000006                             : UARTCC26XX.oem4f (.text:UARTCC26XX_writePolling)
                  0001447e    00000006     maclib_secure_cc2652_2_4g.a : mac_mgmt.obj (.text:macApiBadState)
                  00014484    00000006                                 : mac_beacon_coord.obj (.text:macBeaconBattLifeCallback)
                  0001448a    00000006                                 : mac_beacon_device.obj (.text:macBroadcastPendCallback)
                  00014490    00000006                                 : mac_mgmt.obj (.text:macSecCpy)
                  00014496    00000006     rom_sysbios.aem4f : rom_sysbios.obj (.text:ti_sysbios_family_arm_m3_Hwi_setFunc__E)
                  0001449c    00000004     dpl_cc26x2_v1.aem4f : PowerCC26X2_tirtos.oem4f (.text:CPUwfi)
                  000144a0    00000004                         : ClockP_tirtos.oem4f (.text:ClockP_destruct)
                  000144a4    00000004                         : ClockP_tirtos.oem4f (.text:ClockP_getCpuFreq)
                  000144a8    00000004                         : ClockP_tirtos.oem4f (.text:ClockP_getTimeout)
                  000144ac    00000004                         : ClockP_tirtos.oem4f (.text:ClockP_setTimeout)
                  000144b0    00000004                         : ClockP_tirtos.oem4f (.text:ClockP_start)
                  000144b4    00000004                         : ClockP_tirtos.oem4f (.text:ClockP_stop)
                  000144b8    00000004                         : HwiP_tirtos.oem4f (.text:HwiP_destruct)
                  000144bc    00000004                         : HwiP_tirtos.oem4f (.text:HwiP_disable)
                  000144c0    00000004                         : HwiP_tirtos.oem4f (.text:HwiP_enableInterrupt)
                  000144c4    00000004                         : HwiP_tirtos.oem4f (.text:HwiP_post)
                  000144c8    00000004                         : HwiP_tirtos.oem4f (.text:HwiP_setFunc)
                  000144cc    00000004                         : HwiP_tirtos.oem4f (.text:HwiP_setPriority)
                  000144d0    00000004     maclib_secure_cc2652_2_4g.a : mac_mgmt.obj (.text:MAC_EnableFH)
                  000144d4    00000004                                 : mac_mgmt.obj (.text:MAC_MlmeFHGetReq)
                  000144d8    00000004                                 : mac_mgmt.obj (.text:MAC_MlmeFHGetReqSize)
                  000144dc    00000004                                 : mac_mgmt.obj (.text:MAC_MlmeFHSetReq)
                  000144e0    00000004                                 : mac_mgmt.obj (.text:MAC_StartFH)
                  000144e4    00000004     driverlib.lib : rfc.obj (.text:NOROM_RFCOverrideUpdate)
                  000144e8    00000004     npi_task.obj (.text:NPITask_Fxn)
                  000144ec    00000004     dpl_cc26x2_v1.aem4f : SemaphoreP_tirtos.oem4f (.text:SemaphoreP_destruct)
                  000144f0    00000004                         : SemaphoreP_tirtos.oem4f (.text:SemaphoreP_post)
                  000144f4    00000004                         : SwiP_tirtos.oem4f (.text:SwiP_destruct)
                  000144f8    00000004                         : SwiP_tirtos.oem4f (.text:SwiP_disable)
                  000144fc    00000004                         : SwiP_tirtos.oem4f (.text:SwiP_getTrigger)
                  00014500    00000004                         : SwiP_tirtos.oem4f (.text:SwiP_or)
                  00014504    00000004                         : SwiP_tirtos.oem4f (.text:SwiP_post)
                  00014508    00000004                         : SwiP_tirtos.oem4f (.text:SwiP_setPriority)
                  0001450c    00000004     maclib_secure_cc2652_2_4g.a : mac_data.obj (.text:macDataTxDelayCallback)
                  00014510    00000004                                 : mac_device.obj (.text:macPanConflictComplete)
                  00014514    00000004                                 : mac_radio.obj (.text:macRadioComputeLQI)
                  00014518    00000004                                 : mac.obj (.text:macRxCb$69)
                  0001451c    00000004     drivers_cc26x2_v1.aem4f : PowerCC26X2.oem4f (.text:nopResourceHandler)
                  00014520    00000004     mac_user_config.obj (.text:rf_patch_cpe_ieee_802_15_4$12)
                  00014524    00000004     rom_sysbios.aem4f : rom_sysbios.obj (.text:ti_sysbios_gates_GateMutexPri_query__E)
                  00014528    00000004                       : rom_sysbios.obj (.text:ti_sysbios_knl_Clock_isActive__E)
                  0001452c    00000004                       : rom_sysbios.obj (.text:ti_sysbios_knl_Queue_insert__E)
                  00014530    00000004                       : rom_sysbios.obj (.text:ti_sysbios_knl_Task_getPri__E)
                  00014534    00000004                       : rom_sysbios.obj (.text:xdc_runtime_SysCallback_defaultReady)
                  00014538    00000008     (.tramp.ti_sysbios_knl_Swi_destruct.1)
                  00014540    00000008     (.tramp.ti_sysbios_knl_Semaphore_destruct.1)
                  00014548    00000008     (.tramp.ti_sysbios_family_arm_m3_Hwi_setPriority__E.1)
                  00014550    00000008     (.tramp.ti_sysbios_family_arm_m3_Hwi_enableInterrupt__E.1)
                  00014558    00000008     (.tramp.ti_sysbios_family_arm_m3_Hwi_disableFxn__E.2)
                  00014560    00000008     (.tramp.ti_sysbios_family_arm_m3_Hwi_destruct.1)
                  00014568    00000008     (.tramp.ti_sysbios_BIOS_getCpuFreq__E.1)
                  00014570    00000008     (.tramp.ti_sysbios_knl_Clock_destruct.1)
                  00014578    00000008     (.tramp.xdc_runtime_Core_assignParams__I.1)
                  00014580    00000008     (.tramp.ti_sysbios_knl_Semaphore_delete.1)
                  00014588    00000008     (.tramp.ti_sysbios_knl_Queue_destruct.1)
                  00014590    00000008     (.tramp.ti_sysbios_knl_Clock_logTick__E.1)
                  00014598    00000008     (.tramp.ti_sysbios_knl_Task_blockI__E.1)
                  000145a0    00000008     (.tramp.ti_sysbios_knl_Swi_post__E.1)
                  000145a8    00000008     (.tramp.ti_sysbios_knl_Queue_construct.1)
                  000145b0    00000008     (.tramp.xdc_runtime_Core_assignLabel__I.1)
                  000145b8    00000008     (.tramp.ti_sysbios_BIOS_RtsGateProxy_leave__E.1)
                  000145c0    00000008     (.tramp.ti_sysbios_knl_Swi_construct.1)
                  000145c8    00000008     (.tramp.ti_sysbios_BIOS_RtsGateProxy_enter__E.1)
                  000145d0    00000008     (.tramp.xdc_runtime_Core_deleteObject__I.1)
                  000145d8    00000008     (.tramp.ti_sysbios_knl_Clock_getTicks__E.2)
                  000145e0    00000008     (.tramp.ti_sysbios_knl_Semaphore_create.2)
                  000145e8    00000008     (.tramp.ti_sysbios_knl_Semaphore_construct.1)
                  000145f0    00000008     (.tramp.ti_sysbios_knl_Semaphore_Params__init__S.1)
                  000145f8    00000008     (.tramp.xdc_runtime_Core_createObject__I.1)
                  00014600    00000008     (.tramp.ti_sysbios_knl_Task_startup__E.1)
                  00014608    00000008     (.tramp.ti_sysbios_knl_Swi_startup__E.1)
                  00014610    00000008     (.tramp.ti_sysbios_hal_Hwi_startup__E.1)
                  00014618    00000008     (.tramp.ti_sysbios_family_arm_cc26xx_Timer_startup__E.1)
                  00014620    00000008     (.tramp.xdc_runtime_System_atexit__E.1)
                  00014628    00000008     (.tramp.ti_sysbios_BIOS_linkedWithIncorrectBootLibrary__E.1)
                  00014630    00000008     (.tramp.xdc_runtime_Startup_rtsDone__E.1)
                  00014638    00000008     (.tramp.ti_sysbios_BIOS_setThreadType__E.1)
                  00014640    00000008     (.tramp.ti_sysbios_knl_Swi_disable__E.1)
                  00014648    00000008     (.tramp.ti_sysbios_knl_Queue_next__E.1)
                  00014650    00000008     (.tramp.ti_sysbios_knl_Queue_head__E.1)
                  00014658    00000008     (.tramp.ti_sysbios_knl_Queue_Object__get__S.1)
                  00014660    00000008     (.tramp.ti_sysbios_family_arm_m3_Hwi_construct.1)
                  00014668    00000008     (.tramp.ti_sysbios_knl_Swi_Params__init__S.1)
                  00014670    00000008     (.tramp.ti_sysbios_family_arm_m3_Hwi_Params__init__S.1)
                  00014678    00000008     (.tramp.ti_sysbios_knl_Clock_construct.2)
                  00014680    00000008     (.tramp.ti_sysbios_knl_Clock_Params__init__S.2)
                  00014688    00000008     (.tramp.xdc_runtime_System_exit__E.1)
                  00014690    00000008     (.tramp.ti_sysbios_knl_Queue_create.1)
                  00014698    00000008     (.tramp.ti_sysbios_BIOS_start__E.1)
                  000146a0    00000008     (.tramp.ti_sysbios_knl_Task_construct.1)
                  000146a8    00000008     (.tramp.ti_sysbios_knl_Task_Params__init__S.2)
                  000146b0    00000008     (.tramp.ti_sysbios_knl_Task_unblockI__E.1)
                  000146b8    00000008     (.tramp.ti_sysbios_knl_Task_self__E.2)
                  000146c0    00000008     (.tramp.ti_sysbios_knl_Clock_scheduleNextTick__E.1)
                  000146c8    00000008     (.tramp.ti_sysbios_knl_Clock_walkQueueDynamic__E.1)
                  000146d0    00000008     (.tramp.ti_sysbios_knl_Clock_TimerProxy_getCurrentTick__E.1)
                  000146d8    00000008     (.tramp.ti_sysbios_knl_Task_restore__E.2)
                  000146e0    00000008     (.tramp.ti_sysbios_knl_Queue_remove__E.1)
                  000146e8    00000008     (.tramp.ti_sysbios_knl_Task_disable__E.2)
                  000146f0    00000008     (.tramp.ti_sysbios_knl_Clock_stop__E.2)
                  000146f8    00000008     (.tramp.ti_sysbios_knl_Clock_start__E.2)
                  00014700    00000008     (.tramp.ti_sysbios_knl_Clock_setTimeout__E.2)
                  00014708    00000008     (.tramp.ti_sysbios_knl_Swi_restore__E.1)
                  00014710    00000008     (.tramp.ti_sysbios_family_arm_m3_Hwi_restoreFxn__E.2)
                  00014718    00000008     (.tramp.ti_sysbios_knl_Queue_dequeue__E.1)
                  00014720    00000008     (.tramp.ti_sysbios_knl_Queue_empty__E.1)
                  00014728    00000008     (.tramp.ti_sysbios_knl_Semaphore_post__E.2)
                  00014730    00000008     (.tramp.ti_sysbios_knl_Queue_enqueue__E.1)
                  00014738    00000008     (.tramp.ti_sysbios_knl_Semaphore_pend__E.2)

.const     0    00014740    00000f30     
                  00014740    000003e4     hmac_global.obj (.const:$O23$$)
                  00014b24    00000338     app_pem4f.oem4f (.const:ROM_constStruct)
                  00014e5c    00000100     crc.obj (.const:.string:crc_table$44)
                  00014f5c    000000cc     icall.obj (.const:$O16$$)
                  00015028    0000006e     hmac_global.obj (.const:macIdleSt)
                  00015096    0000006e     hmac_global.obj (.const:macScanningSt)
                  00015104    00000054     drivers_cc26x2_v1.aem4f : PowerCC26X2.oem4f (.const:resourceDB)
                  00015158    00000050     CC26X2R1_LAUNCHXL.obj (.const:uartCC26XXHWAttrs)
                  000151a8    00000048     CC26X2R1_LAUNCHXL.obj (.const:$O18$$)
                  000151f0    00000048     app_pem4f.oem4f (.const:.string)
                  00015238    00000044     app_pem4f.oem4f (.const:ROM_externFuncPtrs)
                  0001527c    00000040     CC26X2R1_LAUNCHXL.obj (.const:spiCC26XXDMAHWAttrs)
                  000152bc    00000028     drivers_cc26x2_v1.aem4f : NVSCC26XX.oem4f (.const:NVSCC26XX_fxnTable)
                  000152e4    00000028                             : NVSSPI25X.oem4f (.const:NVSSPI25X_fxnTable)
                  0001530c    00000028                             : UARTCC26XX.oem4f (.const:UARTCC26XX_fxnTable)
                  00015334    00000024                             : UART.oem4f (.const:UART_defaultParams)
                  00015358    00000024     CC26X2R1_LAUNCHXL.obj (.const:nvsSPI25XHWAttrs)
                  0001537c    00000024     app_pem4f.oem4f (.const:ti_sysbios_gates_GateMutexPri_Module__FXNS__C)
                  000153a0    00000024     app_pem4f.oem4f (.const:xdc_runtime_Startup_sfxnTab__A)
                  000153c4    00000020     drivers_cc26x2_v1.aem4f : SPI.oem4f (.const:SPI_defaultParams)
                  000153e4    00000020     app_pem4f.oem4f (.const:ti_sysbios_gates_GateMutexPri_Object__DESC__C)
                  00015404    0000001c     rf_multiMode_cc26x2_v1.aem4f : RFCC26X2_multiMode.oem4f (.const:RF_defaultParams)
                  00015420    00000018     CC26X2R1_LAUNCHXL.obj (.const:NVS_config)
                  00015438    00000018     drivers_cc26x2_v1.aem4f : SPICC26XXDMA.oem4f (.const:SPICC26XXDMA_fxnTable)
                  00015450    00000018     CC26X2R1_LAUNCHXL.obj (.const:SPI_config)
                  00015468    00000018     CC26X2R1_LAUNCHXL.obj (.const:UART_config)
                  00015480    00000018     drivers_cc26x2_v1.aem4f : SPICC26XXDMA.oem4f (.const:frameFormat)
                  00015498    00000018                             : GPIOCC26XX.oem4f (.const:interruptType)
                  000154b0    00000018     app_pem4f.oem4f (.const:ti_sysbios_gates_GateMutexPri_Object__PARAMS__C)
                  000154c8    00000014     CC26X2R1_LAUNCHXL.obj (.const:GPIOCC26XX_config)
                  000154dc    00000014     drivers_cc26x2_v1.aem4f : UARTCC26XX.oem4f (.const:parityType)
                  000154f0    00000013     macstack.obj (.const:.string:msacbackSizeTable)
                  00015503    00000001     drivers_cc26x2_v1.aem4f : NVSSPI25X.oem4f (.const:.string:$P$T0$1)
                  00015504    00000012     app_pem4f.oem4f (.const:xdc_runtime_Startup_sfxnRts__A)
                  00015516    00000001     drivers_cc26x2_v1.aem4f : NVSSPI25X.oem4f (.const:.string:$P$T1$2)
                  00015517    00000001     app_pem4f.oem4f (.const:xdc_runtime_Text_charTab__A)
                  00015518    00000010     driverlib.lib : aes.obj (.const:$P$T0$1$96)
                  00015528    00000010     drivers_cc26x2_v1.aem4f : AESCCM.oem4f (.const:AESCCM_defaultParams)
                  00015538    00000010     CC26X2R1_LAUNCHXL.obj (.const)
                  00015548    00000010     CC26X2R1_LAUNCHXL.obj (.const:PowerCC26X2_config)
                  00015558    00000010     drivers_cc26x2_v1.aem4f : UARTCC26XX.oem4f (.const:dataLength)
                  00015568    00000010                             : GPIOCC26XX.oem4f (.const:outPinTypes)
                  00015578    0000000c     mt_sys.obj (.const:$O4$$)
                  00015584    0000000c     CC26X2R1_LAUNCHXL.obj (.const:RFCC26XX_hwAttrs)
                  00015590    0000000c     drivers_cc26x2_v1.aem4f : GPIOCC26XX.oem4f (.const:inPinTypes)
                  0001559c    0000000c                             : GPIOCC26XX.oem4f (.const:outPinStrengths)
                  000155a8    0000000c     app_pem4f.oem4f (.const:xdc_runtime_Startup_firstFxns__A)
                  000155b4    00000008     driverlib.lib : aux_sysif.obj (.const:$O33$$)
                  000155bc    00000008     maclib_secure_cc2652_2_4g.a : mac_rx.obj (.const:$O38$$)
                  000155c4    00000008     main.obj (.const:.string:dummyExtAddr$13)
                  000155cc    00000008     CC26X2R1_LAUNCHXL.obj (.const:AESCCM_config)
                  000155d4    00000008     CC26X2R1_LAUNCHXL.obj (.const:PINCC26XX_hwAttrs)
                  000155dc    00000008     CC26X2R1_LAUNCHXL.obj (.const:UDMACC26XX_config)
                  000155e4    00000008     CC26X2R1_LAUNCHXL.obj (.const:aesccmCC26XXHWAttrs)
                  000155ec    00000008     drivers_cc26x2_v1.aem4f : SPICC26XXDMA.oem4f (.const:dmaNullConfig)
                  000155f4    00000008                             : SPICC26XXDMA.oem4f (.const:dmaRxConfig)
                  000155fc    00000008                             : SPICC26XXDMA.oem4f (.const:dmaTxConfig)
                  00015604    00000008                             : SPICC26XXDMA.oem4f (.const:mode)
                  0001560c    00000008     CC26X2R1_LAUNCHXL.obj (.const:nvsCC26xxHWAttrs)
                  00015614    00000008     drivers_cc26x2_v1.aem4f : UARTCC26XX.oem4f (.const:stopBits)
                  0001561c    00000008     CC26X2R1_LAUNCHXL.obj (.const:udmaHWAttrs)
                  00015624    00000006     drivers_cc26x2_v1.aem4f : UARTCC26XX.oem4f (.const:.string:rxFifoBytes)
                  0001562a    00000006                             : UARTCC26XX.oem4f (.const:.string:rxFifoThreshold)
                  00015630    00000006                             : UARTCC26XX.oem4f (.const:.string:txFifoBytes)
                  00015636    00000006                             : UARTCC26XX.oem4f (.const:.string:txFifoThreshold)
                  0001563c    00000004                             : NVS.oem4f (.const:NVS_defaultParams)
                  00015640    00000004     icall_cc2650.obj (.const:events$1$18)
                  00015644    00000004     osaltasks.obj (.const:tasksArr)
                  00015648    00000004     app_pem4f.oem4f (.const:ti_sysbios_family_arm_cc26xx_Timer_funcHookCH1__C)
                  0001564c    00000004     app_pem4f.oem4f (.const:ti_sysbios_family_arm_cc26xx_Timer_funcHookCH2__C)
                  00015650    00000004     app_pem4f.oem4f (.const:ti_sysbios_family_arm_m3_Hwi_swiDisable__C)
                  00015654    00000004     app_pem4f.oem4f (.const:ti_sysbios_family_arm_m3_Hwi_swiRestoreHwi__C)
                  00015658    00000004     app_pem4f.oem4f (.const:ti_sysbios_gates_GateMutexPri_Instance_State_pendQ__O)
                  0001565c    00000004     app_pem4f.oem4f (.const:ti_sysbios_knl_Clock_tickPeriod__C)
                  00015660    00000004     app_pem4f.oem4f (.const:ti_sysbios_knl_Idle_funcList__A)
                  00015664    00000004     app_pem4f.oem4f (.const:xdc_runtime_SysCallback_flushFxn__C)
                  00015668    00000004     app_pem4f.oem4f (.const:xdc_runtime_SysCallback_putchFxn__C)
                  0001566c    00000004     app_pem4f.oem4f (.const:xdc_runtime_SysCallback_readyFxn__C)

config_const 
*          0    00015670    0000087d     
                  00015670    00000770     mac_user_config.obj (.const:$O12$$)
                  00015de0    00000068     mac_user_config.obj (.const:rfDriverTable)
                  00015e48    00000050     mac_user_config.obj (.const:txPowerTable_ieee)
                  00015e98    00000040     mac_user_config.obj (.const:macCryptoDriverTable)
                  00015ed8    00000010     mac_user_config.obj (.const:rfPatchTable_ieee)
                  00015ee8    00000004     mac_user_config.obj (.const:txPwrTbl_ieee)
                  00015eec    00000001     mac_user_config.obj (.const)

flash_last_text 
*          0    00056000    00001c3a     
                  00056000    00000106     icall.obj (.text:ICall_primWaitMatch$17)
                  00056106    00000002     --HOLE-- [fill = 0]
                  00056108    00000008     (.tramp.ti_sysbios_knl_Task_self__E.1)
                  00056110    00000008     (.tramp.ti_sysbios_knl_Clock_getTicks__E.1)
                  00056118    00000008     (.tramp.ti_sysbios_knl_Semaphore_pend__E.1)
                  00056120    00000008     (.tramp.ti_sysbios_knl_Semaphore_post__E.1)
                  00056128    00000098     icall.obj (.text:ICall_primSetTimer$17)
                  000561c0    00000008     (.tramp.ti_sysbios_knl_Clock_Params__init__S.1)
                  000561c8    00000008     (.tramp.ti_sysbios_knl_Clock_create.1)
                  000561d0    00000008     (.tramp.ti_sysbios_knl_Clock_stop__E.1)
                  000561d8    00000008     (.tramp.ti_sysbios_knl_Clock_setTimeout__E.1)
                  000561e0    00000008     (.tramp.ti_sysbios_knl_Clock_start__E.1)
                  000561e8    00000094     icall.obj (.text:icall_directAPI)
                  0005627c    0000007c     icall.obj (.text:ICall_heapMalloc)
                  000562f8    00000070     icall.obj (.text:ICall_createRemoteTasks)
                  00056368    00000008     (.tramp.ti_sysbios_knl_Task_disable__E.1)
                  00056370    00000008     (.tramp.ti_sysbios_knl_Task_Params__init__S.1)
                  00056378    00000008     (.tramp.ti_sysbios_knl_Task_create.1)
                  00056380    00000008     (.tramp.ti_sysbios_knl_Task_restore__E.1)
                  00056388    0000006c     icall.obj (.text:ICall_primSend$17)
                  000563f4    00000064     icall.obj (.text:ICall_primEnroll$17)
                  00056458    00000060     icall.obj (.text:ICall_primRegisterApp$17)
                  000564b8    0000005c     icall.obj (.text:ICall_primThreadServes$17)
                  00056514    00000054     icall.obj (.text:ICall_primFetchMsg$17)
                  00056568    00000052     icall.obj (.text:ICall_primWait$17)
                  000565ba    00000002     --HOLE-- [fill = 0]
                  000565bc    0000004c     icall.obj (.text:ICall_primGetEntityId$17)
                  00056608    00000044     icall.obj (.text:ICall_newTask$17)
                  0005664c    00000008     (.tramp.ti_sysbios_knl_Semaphore_create.1)
                  00056654    00000042     icall.obj (.text:ICall_primCreateTask$17)
                  00056696    00000002     --HOLE-- [fill = 0]
                  00056698    00000038     icall.obj (.text:ICall_primGetMaxMSecs$17)
                  000566d0    00000038     icall.obj (.text:ICall_primRegisterISR$17)
                  00056708    00000008     (.tramp.ti_sysbios_hal_Hwi_create.1)
                  00056710    00000038     icall.obj (.text:ICall_primRegisterISR_Ext$17)
                  00056748    00000038     icall.obj (.text:ICall_waitMatch$17)
                  00056780    00000034     icall.obj (.text:ICall_primEntityId2ServiceId$17)
                  000567b4    00000034     icall.obj (.text:ICall_searchServiceEntity)
                  000567e8    00000030     icall.obj (.text:ICall_dispatch$17)
                  00056818    00000030     icall.obj (.text:ICall_msecs2Ticks$17)
                  00056848    00000030     icall.obj (.text:ICall_searchTask$17)
                  00056878    0000002c     icall.obj (.text:ICall_heapFree)
                  000568a4    0000002c     icall.obj (.text:ICall_msgEnqueue$17)
                  000568d0    0000002c     icall.obj (.text:ICall_primAllocMsg$17)
                  000568fc    0000002c     icall.obj (.text:ICall_primFetchServiceMsg$17)
                  00056928    00000020     icall.obj (.text:ICall_freeMsg$17)
                  00056948    00000020     icall.obj (.text:ICall_primService$17)
                  00056968    0000001e     icall.obj (.text:ICall_primSendServiceMsg$17)
                  00056986    0000001a     icall.obj (.text:ICall_enterCSImpl)
                  000569a0    00000008     (.tramp.ti_sysbios_family_arm_m3_Hwi_disableFxn__E.1)
                  000569a8    0000001a     icall.obj (.text:ICall_primSetTimerMSecs$17)
                  000569c2    00000018     icall.obj (.text:ICall_primMalloc$17)
                  000569da    00000016     icall.obj (.text:ICall_leaveCSImpl)
                  000569f0    00000008     (.tramp.ti_sysbios_family_arm_m3_Hwi_restoreFxn__E.1)
                  000569f8    00000016     icall.obj (.text:ICall_primStopTimer$17)
                  00056a0e    00000002     --HOLE-- [fill = 0]
                  00056a10    00000010     icall.obj (.text:ICall_primGetTickPeriod$17)
                  00056a20    00000010     icall.obj (.text:ICall_taskEntry$17)
                  00056a30    0000000e     icall.obj (.text:ICall_primDisableMInt$17)
                  00056a3e    0000000e     icall.obj (.text:ICall_primEnableMInt$17)
                  00056a4c    00000008     (.tramp.ti_sysbios_family_arm_m3_Hwi_enableFxn__E.1)
                  00056a54    00000008     (.tramp.ti_sysbios_knl_Task_enable__E.1)
                  00056a5c    0000000e     icall.obj (.text:ICall_primFreeMsg$17)
                  00056a6a    0000000e     icall.obj (.text:ICall_primGetTicks$17)
                  00056a78    0000000c     icall.obj (.text:ICall_clockFunc$17)
                  00056a84    0000000c     icall.obj (.text:ICall_primDisableInt$17)
                  00056a90    00000008     (.tramp.ti_sysbios_hal_Hwi_disableInterrupt__E.1)
                  00056a98    0000000c     icall.obj (.text:ICall_primEnableInt$17)
                  00056aa4    00000008     (.tramp.ti_sysbios_hal_Hwi_enableInterrupt__E.1)
                  00056aac    0000000c     icall.obj (.text:ICall_primFree$17)
                  00056ab8    0000000c     icall.obj (.text:ICall_primSignal$17)
                  00056ac4    0000000c     icall.obj (.text:matchLiteCS$17)
                  00056ad0    0000000a     icall.obj (.text:ICall_primAbort$17)
                  00056ada    0000000a     icall.obj (.text:ICall_primE2S$17)
                  00056ae4    000003e0     icall_startup.obj (.text:startup_entry)
                  00056ec4    00000074     icall_cc2650.obj (.text:ICallPlatform_pwrUpdActivityCounter)
                  00056f38    0000003c     icall_cc2650.obj (.text:ICallPlatform_pwrConfigACAction)
                  00056f74    00000032     icall_cc2650.obj (.text:ICallPlatform_pwrNotify$18)
                  00056fa6    00000002     --HOLE-- [fill = 0]
                  00056fa8    00000030     icall_cc2650.obj (.text:ICallPlatform_pwrRegisterNotify)
                  00056fd8    0000002e     icall_cc2650.obj (.text:ICallPlatform_pwrDispenseImpl$18)
                  00057006    0000002e     icall_cc2650.obj (.text:ICallPlatform_pwrRequireImpl$18)
                  00057034    00000018     icall_cc2650.obj (.text:ICallPlatform_pwrDispense)
                  0005704c    00000018     icall_cc2650.obj (.text:ICallPlatform_pwrRequire)
                  00057064    00000010     icall_cc2650.obj (.text:ICallPlatform_pwrGetXOSCStartupTime)
                  00057074    0000000e     icall_cc2650.obj (.text:ICallPlatform_pwrGetTransitionState)
                  00057082    0000000e     icall_cc2650.obj (.text:ICallPlatform_pwrIsStableXOSCHF)
                  00057090    0000000a     icall_cc2650.obj (.text:ICallPlatform_pwrSwitchXOSCHF)
                  0005709a    00000002     --HOLE-- [fill = 0]
                  0005709c    000002cc     osal.obj (.text:osal_start_system)
                  00057368    000000a4     osal.obj (.text:osal_set_event)
                  0005740c    00000088     osal.obj (.text:osal_msg_receive)
                  00057494    00000064     osal.obj (.text:osal_msg_enqueue_push$35)
                  000574f8    00000060     osal.obj (.text:osal_msg_send)
                  00057558    00000040     osal.obj (.text:ICall_setTimer$35)
                  00057598    0000003c     osal.obj (.text:ICall_setTimerMSecs$35)
                  000575d4    0000003c     osal.obj (.text:osal_msg_extract)
                  00057610    00000038     osal.obj (.text:osal_msg_dequeue)
                  00057648    00000034     osal.obj (.text:ICall_send$35)
                  0005767c    00000034     osal.obj (.text:osal_msg_enqueue)
                  000576b0    00000030     osal.obj (.text:osal_alien2proxy)
                  000576e0    0000002c     osal.obj (.text:osal_msec_timer_cback$35)
                  0005770c    00000024     osal.obj (.text:osal_msg_allocate)
                  00057730    00000020     osal.obj (.text:ICall_getTicks$35)
                  00057750    00000020     osal.obj (.text:ICall_signal$35)
                  00057770    00000020     osal.obj (.text:osal_memcmp)
                  00057790    00000020     osal.obj (.text:osal_msg_push)
                  000577b0    0000001c     osal.obj (.text:ICall_abort$35)
                  000577cc    0000001c     osal.obj (.text:osal_proxy2alien$35)
                  000577e8    00000018     osal.obj (.text:osal_memcpy)
                  00057800    00000012     osal.obj (.text:osal_msg_deallocate)
                  00057812    00000002     --HOLE-- [fill = 0]
                  00057814    0000000c     osal.obj (.text:osal_self)
                  00057820    00000004     osal.obj (.text:osal_memset)
                  00057824    00000074     osal_pwrmgr.obj (.text:osal_pwrmgr_task_state)
                  00057898    00000024     osal_pwrmgr.obj (.text:ICall_pwrUpdActivityCounter$39)
                  000578bc    00000028     osal_memory_icall.obj (.text:osal_mem_alloc)
                  000578e4    00000020     osal_memory_icall.obj (.text:ICall_free$38)
                  00057904    00000028     osal_timers.obj (.text:osal_next_timeout)
                  0005792c    0000001c     osaltasks.obj (.text:ICall_abort$43)
                  00057948    0000003c     hal_trng_wrapper.obj (.text:HalTRNG_GetTRNG)
                  00057984    0000002c     hal_trng_wrapper.obj (.text:HalTRNG_InitTRNG)
                  000579b0    00000094     board_led.obj (.text:board_led_blinkTimeoutCB$23)
                  00057a44    00000074     board_led.obj (.text:Board_Led_control)
                  00057ab8    00000028     board_led.obj (.text:board_led_anyBlinking$23)
                  00057ae0    0000000c     board_led.obj (.text:board_led_convertLedValue$23)
                  00057aec    0000000a     board_led.obj (.text:board_led_convertLedType$23)
                  00057af6    0000003a     util.obj (.text:Util_bufferUint32)
                  00057b30    00000016     util.obj (.text:Util_parseUint32)
                  00057b46    0000000c     util.obj (.text:Util_bufferUint16)
                  00057b52    0000000c     util.obj (.text:Util_parseUint16)
                  00057b5e    00000008     util.obj (.text:Util_breakUint32)
                  00057b66    00000002     --HOLE-- [fill = 0]
                  00057b68    00000048     timer.obj (.text:Timer_construct)
                  00057bb0    00000008     (.tramp.ti_sysbios_knl_Clock_construct.1)
                  00057bb8    00000018     timer.obj (.text:Timer_isActive)
                  00057bd0    00000004     timer.obj (.text:Timer_start)
                  00057bd4    00000004     timer.obj (.text:Timer_stop)
                  00057bd8    0000002c     saddr.obj (.text:sAddrCmp)
                  00057c04    0000001c     saddr.obj (.text:sAddrExtCmp)
                  00057c20    00000014     saddr.obj (.text:sAddrCpy)
                  00057c34    00000006     saddr.obj (.text:sAddrExtCpy)

.cinit     0    00015ef0    000003a8     
                  00015ef0    00000314     (.cinit..data.load) [load image, compression = lzss]
                  00016204    0000000c     (__TI_handler_table)
                  00016210    00000008     (.cinit..TI.bound:dmaSpi0RxControlTableEntry.load) [load image, compression = zero_init]
                  00016218    00000008     (.cinit..TI.bound:dmaSpi0TxControlTableEntry.load) [load image, compression = zero_init]
                  00016220    00000008     (.cinit..TI.bound:dmaSpi1RxControlTableEntry.load) [load image, compression = zero_init]
                  00016228    00000008     (.cinit..TI.bound:dmaSpi1TxControlTableEntry.load) [load image, compression = zero_init]
                  00016230    00000008     (.cinit..bss.load) [load image, compression = zero_init]
                  00016238    00000008     (.cinit..data:xdcRomConstPtr.load) [load image, compression = lzss]
                  00016240    00000008     (.cinit..data:xdcRomExternFuncPtr.load) [load image, compression = lzss]
                  00016248    00000008     (.cinit..data:xdcRomStatePtr.load) [load image, compression = lzss]
                  00016250    00000048     (__TI_cinit_table)

.init_array 
*          0    00000000    00000000     UNINITIALIZED

.TI.bound:flashBuf$20 
*          0    00052000    00004000     UNINITIALIZED
                  00052000    00004000     CC26X2R1_LAUNCHXL.obj (.TI.bound:flashBuf$20)

.ccfg      0    00057fa8    00000058     
                  00057fa8    00000058     ccfg.obj (.ccfg:retain)

.data:xdcRomConstPtr 
*          0    20000100    00000004     UNINITIALIZED
                  20000100    00000004     app_pem4f.oem4f (.data:xdcRomConstPtr)

.data:xdcRomExternFuncPtr 
*          0    20000104    00000004     UNINITIALIZED
                  20000104    00000004     app_pem4f.oem4f (.data:xdcRomExternFuncPtr)

.data:xdcRomStatePtr 
*          0    20000108    00000004     UNINITIALIZED
                  20000108    00000004     app_pem4f.oem4f (.data:xdcRomStatePtr)

.TI.bound:dmaSpi0RxControlTableEntry 
*          0    20001830    00000010     UNINITIALIZED
                  20001830    00000010     drivers_cc26x2_v1.aem4f : SPICC26XXDMA.oem4f (.TI.bound:dmaSpi0RxControlTableEntry)

.TI.bound:dmaSpi1RxControlTableEntry 
*          0    20001900    00000010     UNINITIALIZED
                  20001900    00000010     drivers_cc26x2_v1.aem4f : SPICC26XXDMA.oem4f (.TI.bound:dmaSpi1RxControlTableEntry)

.data      0    20001920    0000193d     UNINITIALIZED
                  20001920    00000570     hmac_global.obj (.data:$O22$$)
                  20001e90    00000404     main.obj (.data:$O13$$)
                  20002294    00000368     npi_task.obj (.data:$O8$$)
                  200025fc    00000234     npi_tl.obj (.data:$O9$$)
                  20002830    00000114     npi_rxbuf.obj (.data:$O7$$)
                  20002944    00000108     app_pem4f.oem4f (.data:ROM_stateStruct)
                  20002a4c    000000c8     drivers_cc26x2_v1.aem4f : PowerCC26X2.oem4f (.data:PowerCC26X2_module)
                  20002b14    000000ac     icall.obj (.data:$O15$$)
                  20002bc0    0000009c     mac_settings.obj (.data:$O25$$)
                  20002c5c    00000090     maclib_secure_cc2652_2_4g.a : mac.obj (.data:$O34$$)
                  20002cec    0000004c     mcp.obj (.data:$O14$$)
                  20002d38    0000004c     app_pem4f.oem4f (.data:ti_sysbios_knl_Task_Object__table__V)
                  20002d84    00000004     osal_pwrmgr.obj (.data:$O28$$)
                  20002d88    00000048     app_pem4f.oem4f (.data:ti_sysbios_family_arm_cc26xx_Timer_Object__table__V)
                  20002dd0    00000044     board_led.obj (.data:$O20$$)
                  20002e14    0000003c     mac_user_config.obj (.data:pOverrides_ieee$12)
                  20002e50    00000038     nvoctp.obj (.data:$O32$$)
                  20002e88    00000038     app_pem4f.oem4f (.data:ti_sysbios_gates_GateMutex_Object__table__V)
                  20002ec0    00000034     npi_tl_uart.obj (.data:$O10$$)
                  20002ef4    00000030     osal.obj (.data:$O26$$)
                  20002f24    00000030     mt_util.obj (.data:$O5$$)
                  20002f54    00000030     app_pem4f.oem4f (.data:ti_sysbios_knl_Swi_Module_State_0_readyQ__A)
                  20002f84    00000030     app_pem4f.oem4f (.data:ti_sysbios_knl_Swi_Object__table__V)
                  20002fb4    00000030     app_pem4f.oem4f (.data:ti_sysbios_knl_Task_Module_State_0_readyQ__A)
                  20002fe4    0000002c     mt.obj (.data:$O1$$)
                  20003010    0000002c     maclib_secure_cc2652_2_4g.a : mac_radio.obj (.data:$O36$$)
                  2000303c    0000002c     CC26X2R1_LAUNCHXL.obj (.data:gpioPinConfigs)
                  20003068    00000028     maclib_secure_cc2652_2_4g.a : mac_radio_tx.obj (.data:$O41$$)
                  20003090    00000024                                 : mac_tx.obj (.data:$O40$$)
                  200030b4    00000020     app_pem4f.oem4f (.data:ti_sysbios_knl_Clock_Object__table__V)
                  200030d4    00000020     app_pem4f.oem4f (.data:xdc_runtime_Error_IgnoreBlock)
                  200030f4    00000018     maclib_secure_cc2652_2_4g.a : mac_symbol_timer.obj (.data:$O39$$)
                  2000310c    00000018     app_pem4f.oem4f (.data:ti_sysbios_family_arm_m3_Hwi_Object__table__V)
                  20003124    00000018     app_pem4f.oem4f (.data:ti_sysbios_heaps_HeapMem_Object__table__V)
                  2000313c    00000014     api_mac.obj (.data:$O11$$)
                  20003150    00000010     CC26X2R1_LAUNCHXL.obj (.data:gpioCallbackFunctions)
                  20003160    00000010     mac_cfg.obj (.data:macCfg)
                  20003170    0000000c     macstack.obj (.data:$O30$$)
                  2000317c    0000000c     npi_frame_mt.obj (.data:$O6$$)
                  20003188    00000008     icall_cc2650.obj (.data:$O17$$)
                  20003190    00000008     lmac_global.obj (.data:$O24$$)
                  20003198    00000008     osal_clock.obj (.data:$O27$$)
                  200031a0    00000008     mt_sys.obj (.data:$O3$$)
                  200031a8    00000008     rtsv7M4_T_le_v4SPD16_eabi.lib : _lock.c.obj (.data:$O42$$)
                  200031b0    00000008     drivers_cc26x2_v1.aem4f : PINCC26XX.oem4f (.data)
                  200031b8    00000008     maclib_secure_cc2652_2_4g.a : mac.obj (.data)
                  200031c0    00000008     app_pem4f.oem4f (.data:ti_sysbios_family_arm_m3_Hwi_Module__root__V)
                  200031c8    00000008     app_pem4f.oem4f (.data:ti_sysbios_gates_GateHwi_Module__root__V)
                  200031d0    00000008     app_pem4f.oem4f (.data:ti_sysbios_gates_GateMutexPri_Module__root__V)
                  200031d8    00000008     app_pem4f.oem4f (.data:ti_sysbios_gates_GateMutex_Module__root__V)
                  200031e0    00000008     app_pem4f.oem4f (.data:ti_sysbios_hal_Hwi_Module__root__V)
                  200031e8    00000008     app_pem4f.oem4f (.data:ti_sysbios_heaps_HeapMem_Module__root__V)
                  200031f0    00000008     app_pem4f.oem4f (.data:ti_sysbios_knl_Clock_Module__root__V)
                  200031f8    00000008     app_pem4f.oem4f (.data:ti_sysbios_knl_Event_Module__root__V)
                  20003200    00000008     app_pem4f.oem4f (.data:ti_sysbios_knl_Mailbox_Module__root__V)
                  20003208    00000008     app_pem4f.oem4f (.data:ti_sysbios_knl_Queue_Module__root__V)
                  20003210    00000008     app_pem4f.oem4f (.data:ti_sysbios_knl_Semaphore_Module__root__V)
                  20003218    00000008     app_pem4f.oem4f (.data:ti_sysbios_knl_Swi_Module__root__V)
                  20003220    00000008     app_pem4f.oem4f (.data:ti_sysbios_knl_Task_Module__root__V)
                  20003228    00000005     drivers_cc26x2_v1.aem4f : GPIOCC26XX.oem4f (.data)
                  2000322d    00000002                             : CryptoResourceCC26XX.oem4f (.data)
                  2000322f    00000001                             : AESCCMCC26XX.oem4f (.data)
                  20003230    00000004     maclib_secure_cc2652_2_4g.a : mac_autopend.obj (.data:$O35$$)
                  20003234    00000004     drivers_cc26x2_v1.aem4f : GPIOCC26XX.oem4f (.data:gpioPinTable)
                  20003238    00000004     hal_appasrt.obj (.data)
                  2000323c    00000004     mt_mac.obj (.data)
                  20003240    00000004     mac_user_config.obj (.data:pOverridesTable_ieee)
                  20003244    00000004     rtsv7M4_T_le_v4SPD16_eabi.lib : stkdepth_vars.c.obj (.data)
                  20003248    00000004     app_pem4f.oem4f (.data:ti_sysbios_family_arm_m3_Hwi_Module_State_0_excContext__A)
                  2000324c    00000004     app_pem4f.oem4f (.data:ti_sysbios_family_arm_m3_Hwi_Module_State_0_excStack__A)
                  20003250    00000004     app_pem4f.oem4f (.data:ti_sysbios_knl_Task_Module_State_0_idleTask__A)
                  20003254    00000002     lmac_global.obj (.data)
                  20003256    00000002     app_pem4f.oem4f (.data:ti_sysbios_family_arm_m3_Hwi_Module_State_0_excActive__A)
                  20003258    00000001     drivers_cc26x2_v1.aem4f : NVS.oem4f (.data)
                  20003259    00000001                             : SPI.oem4f (.data)
                  2000325a    00000001                             : UART.oem4f (.data)
                  2000325b    00000001     mac_user_config.obj (.data)
                  2000325c    00000001     npi_tl.obj (.data)

.bss       0    20003260    00001550     UNINITIALIZED
                  20003260    000006b8     (.common:ti_sysbios_heaps_HeapMem_Instance_State_0_buf__A)
                  20003918    00000250     (.common:uartCC26XXObjects)
                  20003b68    00000200     app_pem4f.oem4f (.bss:taskStackSection)
                  20003d68    000001c8     (.common:spiCC26XXDMAObjects)
                  20003f30    000001c0     rf_multiMode_cc26x2_v1.aem4f : RFCC26X2_multiMode.oem4f (.bss:RF_cmdPool)
                  200040f0    000000d8     (.common:ti_sysbios_family_arm_m3_Hwi_dispatchTable)
                  200041c8    000000c8     maclib_secure_cc2652_2_4g.a : mac_radio.obj (.bss:RF_object$73)
                  20004290    0000007c     (.common:pinHandleTable)
                  2000430c    00000004     drivers_cc26x2_v1.aem4f : PINCC26XX.oem4f (.bss)
                  20004310    00000068     rf_multiMode_cc26x2_v1.aem4f : RFCC26X2_multiMode.oem4f (.bss:RF_ratModule)
                  20004378    0000004c     (.common:aesccmCC26XXObjects)
                  200043c4    00000040     CC26X2R1_LAUNCHXL.obj (.bss:verifyBuf$20)
                  20004404    00000040     (.common:uartCC26XXRingBuffer)
                  20004444    00000034     rf_multiMode_cc26x2_v1.aem4f : RFCC26X2_multiMode.oem4f (.bss:RF_swiFsmObj)
                  20004478    00000034                                  : RFCC26X2_multiMode.oem4f (.bss:RF_swiHwObj)
                  200044ac    00000034     drivers_cc26x2_v1.aem4f : PINCC26XX.oem4f (.bss:pinSwi)
                  200044e0    00000030     rf_multiMode_cc26x2_v1.aem4f : RFCC26X2_multiMode.oem4f (.bss:RF_Sch)
                  20004510    00000028     mt_ext.obj (.bss:$O2$$)
                  20004538    00000024     maclib_secure_cc2652_2_4g.a : mac_rx.obj (.bss:$O37$$)
                  2000455c    00000024     rf_multiMode_cc26x2_v1.aem4f : RFCC26X2_multiMode.oem4f (.bss:RF_clkPowerUpObj)
                  20004580    00000020                                  : RFCC26X2_multiMode.oem4f (.bss:RF_cmdQ)
                  200045a0    00000020     drivers_cc26x2_v1.aem4f : GPIOCC26XX.oem4f (.bss:gpioCallbackInfo)
                  200045c0    00000020                             : PINCC26XX.oem4f (.bss:pinGpioConfigTable)
                  200045e0    00000020     (.common:udmaObjects)
                  20004600    0000001c     rf_multiMode_cc26x2_v1.aem4f : RFCC26X2_multiMode.oem4f (.bss:RF_hwiCpe0Obj)
                  2000461c    0000001c                                  : RFCC26X2_multiMode.oem4f (.bss:RF_hwiHwObj)
                  20004638    0000001c     drivers_cc26x2_v1.aem4f : PINCC26XX.oem4f (.bss:pinHwi)
                  20004654    0000001c                             : PINCC26XX.oem4f (.bss:pinSemaphore)
                  20004670    0000001c     (.common:CryptoResourceCC26XX_accessSemaphore)
                  2000468c    0000001c     (.common:CryptoResourceCC26XX_hwi)
                  200046a8    0000001c     (.common:CryptoResourceCC26XX_operationSemaphore)
                  200046c4    00000016     rf_multiMode_cc26x2_v1.aem4f : RFCC26X2_multiMode.oem4f (.bss)
                  200046da    00000002     drivers_cc26x2_v1.aem4f : UARTCC26XX.oem4f (.bss)
                  200046dc    00000014     rf_multiMode_cc26x2_v1.aem4f : RFCC26X2_multiMode.oem4f (.bss:RF_ratSyncCmd)
                  200046f0    00000014                                  : RFCC26X2_multiMode.oem4f (.bss:RF_wakeupNotifyObj)
                  20004704    00000014     driverlib.lib : osc.obj (.bss:oscHfGlobals$98)
                  20004718    00000014     drivers_cc26x2_v1.aem4f : GPIOCC26XX.oem4f (.bss:powerNotifyObj)
                  2000472c    00000010     rf_multiMode_cc26x2_v1.aem4f : RFCC26X2_multiMode.oem4f (.bss:RF_core)
                  2000473c    00000010     drivers_cc26x2_v1.aem4f : NVSSPI25X.oem4f (.bss:spiHandles)
                  2000474c    0000000c                             : NVSCC26XX.oem4f (.bss)
                  20004758    0000000c                             : NVSSPI25X.oem4f (.bss)
                  20004764    0000000c                             : GPIOCC26XX.oem4f (.bss:gpioPinState)
                  20004770    0000000c     (.common:nvsSPI25XObjects)
                  2000477c    00000008     osal_timers.obj (.bss:$O29$$)
                  20004784    00000008     drivers_cc26x2_v1.aem4f : GPIOCC26XX.oem4f (.bss)
                  2000478c    00000004     hal_trng_wrapper.obj (.bss)
                  20004790    00000004     drivers_cc26x2_v1.aem4f : NVSSPI25X.oem4f (.bss:spiHandleUsers)
                  20004794    00000004     (.common:ClockP_tickPeriod)
                  20004798    00000004     (.common:PowerCC26XX_swiKey)
                  2000479c    00000004     (.common:PowerCC26XX_taskKey)
                  200047a0    00000004     (.common:macTasksEvents)
                  200047a4    00000004     (.common:nvsCC26xxObjects)
                  200047a8    00000001     maclib_secure_cc2652_2_4g.a : mac_tx.obj (.bss)
                  200047a9    00000001     (.common:driverlib_release_0_51995)
                  200047aa    00000001     (.common:macPwr)
                  200047ab    00000001     (.common:macRxActive)
                  200047ac    00000001     (.common:macRxEnableFlags)
                  200047ad    00000001     (.common:macRxOutgoingAckFlag)
                  200047ae    00000001     (.common:macSymbolTimerImpending)
                  200047af    00000001     (.common:macTxActive)

.vtable    0    200047b0    00000000     UNINITIALIZED

.vtable_ram 
*          0    200047b0    00000000     UNINITIALIZED

vtable_ram 
*          0    200047b0    00000000     UNINITIALIZED

.sysmem    0    200047b0    00000000     UNINITIALIZED

.nonretenvar 
*          0    200047b0    00000000     UNINITIALIZED

.stack     0    20013b00    00000500     UNINITIALIZED
                  20013b00    00000500     --HOLE--

.bootVecs 
*          0    00000000    00000008     DSECT
                  00000000    00000008     boot.aem4f : boot.oem4f (.bootVecs)

.resetVecs 
*          0    00000000    0000003c     
                  00000000    0000003c     app_pem4f.oem4f (.resetVecs)

.vecs      0    20000000    000000d8     NOLOAD SECTION
                  20000000    000000d8     app_pem4f.oem4f (.vecs)

xdc.meta   0    00000000    00000111     COPY SECTION
                  00000000    00000111     app_pem4f.oem4f (xdc.meta)

xdc.noload 
*          0    00000000    00000000     COPY SECTION

.TI.bound:dmaSpi0TxControlTableEntry 
*          0    20001840    00000010     UNINITIALIZED
                  20001840    00000010     drivers_cc26x2_v1.aem4f : SPICC26XXDMA.oem4f (.TI.bound:dmaSpi0TxControlTableEntry)

.TI.bound:dmaSpi1TxControlTableEntry 
*          0    20001910    00000010     UNINITIALIZED
                  20001910    00000010     drivers_cc26x2_v1.aem4f : SPICC26XXDMA.oem4f (.TI.bound:dmaSpi1TxControlTableEntry)

MODULE SUMMARY

       Module                              code    ro data   rw data
       ------                              ----    -------   -------
    .\obj\
       CC26X2R1_LAUNCHXL.obj               0       436       16508  
       mt_mac.obj                          5378    0         4      
       icall.obj                           2612    204       172    
       nvoctp.obj                          2718    0         56     
       hmac_global.obj                     0       1216      1392   
       mac_user_config.obj                 208     2173      65     
       npi_task.obj                        1444    0         872    
       osal.obj                            1926    0         48     
       api_mac.obj                         1718    0         20     
       main.obj                            454     8         1028   
       mcp.obj                             1396    0         76     
       icall_startup.obj                   992     0         0      
       npi_tl.obj                          296     0         565    
       macstack.obj                        826     19        12     
       mt_sys.obj                          740     12        8      
       mt_util.obj                         516     0         48     
       icall_cc2650.obj                    468     4         8      
       mt.obj                              400     0         44     
       mt_ext.obj                          356     0         40     
       board_led.obj                       326     0         68     
       npi_tl_uart.obj                     324     0         52     
       npi_rxbuf.obj                       84      0         276    
       crc.obj                             32      256       0      
       npi_frame_mt.obj                    236     0         12     
       mac_settings.obj                    0       0         156    
       osal_pwrmgr.obj                     152     0         4      
       util.obj                            112     0         0      
       hal_trng_wrapper.obj                104     0         4      
       timer.obj                           104     0         0      
       saddr.obj                           98      0         0      
       ccfg.obj                            0       88        0      
       osal_memory_icall.obj               72      0         0      
       osal_timers.obj                     40      0         8      
       osaltasks.obj                       28      4         0      
       mac_cfg.obj                         0       0         16     
       lmac_global.obj                     0       0         10     
       osal_clock.obj                      0       0         8      
       hal_appasrt.obj                     0       0         4      
    +--+-----------------------------------+-------+---------+---------+
       Total:                              24160   4420      21584  
                                                                    
    C:\ti\.timac\coprocessor_2_4g_cc26x2lp\coprocessor_2_4g_cc26x2lp\coprocessor_2_4g_cc26x2lp\configPkg\package\cfg\
       app_pem4f.oem4f                     618     1223      3518   
    +--+-----------------------------------+-------+---------+---------+
       Total:                              618     1223      3518   
                                                                    
    C:\ti\.timac\coprocessor_2_4g_cc26x2lp\coprocessor_2_4g_cc26x2lp\coprocessor_2_4g_cc26x2lp\obj\
       lto_coprocessor_2_4g_cc26x2lp.obj   0       0         1247   
    +--+-----------------------------------+-------+---------+---------+
       Total:                              0       0         1247   
                                                                    
    C:/ti/simplelink_cc26x2_sdk_2_20_00_31_s_eng/kernel/tirtos/packages/ti/dpl/lib/dpl_cc26x2_v1.aem4f
       PowerCC26X2_tirtos.oem4f            264     0         8      
       ClockP_tirtos.oem4f                 130     0         4      
       SemaphoreP_tirtos.oem4f             126     0         0      
       HwiP_tirtos.oem4f                   102     0         0      
       SwiP_tirtos.oem4f                   100     0         0      
    +--+-----------------------------------+-------+---------+---------+
       Total:                              722     0         12     
                                                                    
    C:/ti/simplelink_cc26x2_sdk_2_20_00_31_s_eng/source/ti/devices/cc13x2_cc26x2_v1/driverlib/bin/ccs/driverlib.lib
       setup.obj                           700     0         0      
       aes.obj                             536     16        0      
       osc.obj                             364     0         20     
       sys_ctrl.obj                        328     0         0      
       rfc.obj                             190     0         0      
       chipinfo.obj                        188     0         0      
       setup_rom.obj                       140     0         0      
       flash.obj                           56      0         0      
       cpu.obj                             30      0         0      
       aux_sysif.obj                       0       8         0      
    +--+-----------------------------------+-------+---------+---------+
       Total:                              2532    24        20     
                                                                    
    C:/ti/simplelink_cc26x2_sdk_2_20_00_31_s_eng/source/ti/drivers/lib/drivers_cc26x2_v1.aem4f
       UARTCC26XX.oem4f                    2776    108       2      
       SPICC26XXDMA.oem4f                  2460    80        64     
       PowerCC26X2.oem4f                   1894    84        200    
       NVSSPI25X.oem4f                     1986    42        32     
       PINCC26XX.oem4f                     1570    0         276    
       PowerCC26X2_calibrateRCOSC.oem4f    1320    0         0      
       NVSCC26XX.oem4f                     986     40        12     
       GPIOCC26XX.oem4f                    824     64        81     
       AESCCMCC26XX.oem4f                  740     0         1      
       CryptoResourceCC26XX.oem4f          170     0         86     
       UART.oem4f                          182     36        1      
       List.oem4f                          210     0         0      
       SPI.oem4f                           168     32        1      
       UDMACC26XX.oem4f                    168     0         0      
       NVS.oem4f                           160     4         1      
       RingBuf.oem4f                       152     0         0      
       AESCCM.oem4f                        24      16        0      
       CryptoKeyPlaintextCC26XX.oem4f      14      0         0      
    +--+-----------------------------------+-------+---------+---------+
       Total:                              15804   506       757    
                                                                    
    C:/ti/simplelink_cc26x2_sdk_2_20_00_31_s_eng/source/ti/drivers/rf/lib/rf_multiMode_cc26x2_v1.aem4f
       RFCC26X2_multiMode.oem4f            9450    28        906    
    +--+-----------------------------------+-------+---------+---------+
       Total:                              9450    28        906    
                                                                    
    C:\ti\.timac\coprocessor_2_4g_cc26x2lp\coprocessor_2_4g_cc26x2lp\Tools\src\sysbios\rom_sysbios.aem4f
       rom_sysbios.obj                     1500    0         0      
       rom_sysbios_config.obj              12      0         0      
    +--+-----------------------------------+-------+---------+---------+
       Total:                              1512    0         0      
                                                                    
    C:\ti\ccsv8\tools\compiler\ti-cgt-arm_18.1.2.LTS\lib\rtsv7M4_T_le_v4SPD16_eabi.lib
       memcpy_t2.asm.obj                   156     0         0      
       ull_div_t2.asm.obj                  150     0         0      
       memset_t2.asm.obj                   122     0         0      
       ll_div_t2.asm.obj                   110     0         0      
       copy_decompress_lzss.c.obj          104     0         0      
       cpy_tbl.c.obj                       76      0         0      
       u_divt2.asm.obj                     64      0         0      
       memcmp.c.obj                        36      0         0      
       _lock.c.obj                         26      0         8      
       args_main.c.obj                     24      0         0      
       ll_mul_t2.asm.obj                   24      0         0      
       copy_decompress_none.c.obj          14      0         0      
       copy_zero_init.c.obj                12      0         0      
       stkdepth_vars.c.obj                 0       0         4      
       div0.asm.obj                        2       0         0      
    +--+-----------------------------------+-------+---------+---------+
       Total:                              920     0         12     
                                                                    
    C:\ti\simplelink_cc26x2_sdk_2_20_00_31_s_eng\kernel\tirtos\packages\ti\targets\arm\rtsarm\lib\auto_init.aem4f
       auto_init.oem4f                     160     0         0      
    +--+-----------------------------------+-------+---------+---------+
       Total:                              160     0         0      
                                                                    
    C:\ti\simplelink_cc26x2_sdk_2_20_00_31_s_eng\kernel\tirtos\packages\ti\targets\arm\rtsarm\lib\boot.aem4f
       boot.oem4f                          88      0         0      
    +--+-----------------------------------+-------+---------+---------+
       Total:                              88      0         0      
                                                                    
    T:/examples/rtos/CC26X2R1_LAUNCHXL/ti154stack/library/tirtos/bin/maclib_secure_cc2652_2_4g.a
       mac_mgmt.obj                        3762    0         0      
       mac.obj                             3452    0         152    
       mac_data.obj                        3528    0         0      
       mac_coord.obj                       2828    0         0      
       macwrapper.obj                      2480    0         0      
       mac_beacon_device.obj               1670    0         0      
       mac_rx.obj                          1620    8         36     
       mac_device.obj                      1630    0         0      
       mac_scan.obj                        1480    0         0      
       mac_security.obj                    1288    0         0      
       mac_radio.obj                       984     0         244    
       mac_security_pib.obj                1186    0         0      
       mac_tx.obj                          1124    0         37     
       mac_beacon_coord.obj                1142    0         0      
       mac_radio_tx.obj                    800     0         40     
       mac_beacon.obj                      732     0         0      
       mac_pwr.obj                         698     0         0      
       mac_main.obj                        668     0         0      
       mac_symbol_timer.obj                586     0         24     
       mac_pib.obj                         572     0         0      
       mac_timer.obj                       514     0         0      
       mac_rx_onoff.obj                    424     0         0      
       mac_autopend.obj                    400     0         4      
       mac_hl_patch.obj                    306     0         0      
       mac_mcu.obj                         274     0         0      
       mac_ie_parse.obj                    76      0         0      
       mac_low_level.obj                   26      0         0      
    +--+-----------------------------------+-------+---------+---------+
       Total:                              34250   8         537    
                                                                    
       Stack:                              0       0         1280   
       Linker Generated:                   696     936       0      
    +--+-----------------------------------+-------+---------+---------+
       Grand Total:                        90912   7145      29873  


LINKER GENERATED COPY TABLES

__TI_cinit_table @ 00016250 records: 9, size/record: 8, table size: 72
	.data: load addr=00015ef0, load size=00000314 bytes, run addr=20001920, run size=0000193d bytes, compression=lzss
	.TI.bound:dmaSpi0RxControlTableEntry: load addr=00016210, load size=00000008 bytes, run addr=20001830, run size=00000010 bytes, compression=zero_init
	.TI.bound:dmaSpi0TxControlTableEntry: load addr=00016218, load size=00000008 bytes, run addr=20001840, run size=00000010 bytes, compression=zero_init
	.TI.bound:dmaSpi1RxControlTableEntry: load addr=00016220, load size=00000008 bytes, run addr=20001900, run size=00000010 bytes, compression=zero_init
	.TI.bound:dmaSpi1TxControlTableEntry: load addr=00016228, load size=00000008 bytes, run addr=20001910, run size=00000010 bytes, compression=zero_init
	.bss: load addr=00016230, load size=00000008 bytes, run addr=20003260, run size=00001550 bytes, compression=zero_init
	.data:xdcRomConstPtr: load addr=00016238, load size=00000008 bytes, run addr=20000100, run size=00000004 bytes, compression=lzss
	.data:xdcRomExternFuncPtr: load addr=00016240, load size=00000008 bytes, run addr=20000104, run size=00000004 bytes, compression=lzss
	.data:xdcRomStatePtr: load addr=00016248, load size=00000008 bytes, run addr=20000108, run size=00000004 bytes, compression=lzss


LINKER GENERATED HANDLER TABLE

__TI_handler_table @ 00016204 records: 3, size/record: 4, table size: 12
	index: 0, handler: __TI_decompress_lzss
	index: 1, handler: __TI_decompress_none
	index: 2, handler: __TI_zero_init


FAR CALL TRAMPOLINES

callee name               trampoline name
   callee addr  tramp addr   call addr  call info
--------------  -----------  ---------  ----------------
ti_sysbios_knl_Task_self__E  $Tramp$TT$L$PI$$ti_sysbios_knl_Task_self__E
   1003b681     00056108     0005600a   icall.obj (.text:ICall_primWaitMatch$17)
                             000563f8   icall.obj (.text:ICall_primEnroll$17)
                             0005645c   icall.obj (.text:ICall_primRegisterApp$17)
                             000564cc   icall.obj (.text:ICall_primThreadServes$17)
                             00056518   icall.obj (.text:ICall_primFetchMsg$17)
                             0005656c   icall.obj (.text:ICall_primWait$17)
                             000565c0   icall.obj (.text:ICall_primGetEntityId$17)
ti_sysbios_knl_Clock_getTicks__E  $Tramp$TT$L$PI$$ti_sysbios_knl_Clock_getTicks__E
   1003a925     00056110     00056054   icall.obj (.text:ICall_primWaitMatch$17)
                             000560c2   icall.obj (.text:ICall_primWaitMatch$17)
                             00056a6e   icall.obj (.text:ICall_primGetTicks$17)
ti_sysbios_knl_Semaphore_pend__E  $Tramp$TT$L$PI$$ti_sysbios_knl_Semaphore_pend__E
   10039005     00056118     0005606c   icall.obj (.text:ICall_primWaitMatch$17)
                             000565ac   icall.obj (.text:ICall_primWait$17)
ti_sysbios_knl_Semaphore_post__E  $Tramp$TT$L$PI$$ti_sysbios_knl_Semaphore_post__E
   100399d1     00056120     000560f6   icall.obj (.text:ICall_primWaitMatch$17)
                             000563dc   icall.obj (.text:ICall_primSend$17)
                             00056abc   icall.obj (.text:ICall_primSignal$17)
ti_sysbios_knl_Clock_Params__init__S  $Tramp$TT$L$PI$$ti_sysbios_knl_Clock_Params__init__S
   1003b711     000561c0     0005614a   icall.obj (.text:ICall_primSetTimer$17)
                             00057b7c   timer.obj (.text:Timer_construct)
ti_sysbios_knl_Clock_create  $Tramp$TT$L$PI$$ti_sysbios_knl_Clock_create
   1003a7c5     000561c8     0005615e   icall.obj (.text:ICall_primSetTimer$17)
ti_sysbios_knl_Clock_stop__E  $Tramp$TT$L$PI$$ti_sysbios_knl_Clock_stop__E
   1003af29     000561d0     00056196   icall.obj (.text:ICall_primSetTimer$17)
                             00056a00   icall.obj (.text:ICall_primStopTimer$17)
                             00057bd4   timer.obj (.text:Timer_stop)
ti_sysbios_knl_Clock_setTimeout__E  $Tramp$TT$L$PI$$ti_sysbios_knl_Clock_setTimeout__E
   1003b833     000561d8     000561a8   icall.obj (.text:ICall_primSetTimer$17)
ti_sysbios_knl_Clock_start__E  $Tramp$TT$L$PI$$ti_sysbios_knl_Clock_start__E
   1003b599     000561e0     000561ae   icall.obj (.text:ICall_primSetTimer$17)
                             00057bd0   timer.obj (.text:Timer_start)
ti_sysbios_knl_Task_disable__E  $Tramp$TT$L$PI$$ti_sysbios_knl_Task_disable__E
   1003b53d     00056368     000562fe   icall.obj (.text:ICall_createRemoteTasks)
                             00056988   icall.obj (.text:ICall_enterCSImpl)
                             00056a32   icall.obj (.text:ICall_primDisableMInt$17)
ti_sysbios_knl_Task_Params__init__S  $Tramp$TT$L$PI$$ti_sysbios_knl_Task_Params__init__S
   1003b771     00056370     0005630c   icall.obj (.text:ICall_createRemoteTasks)
                             00056668   icall.obj (.text:ICall_primCreateTask$17)
ti_sysbios_knl_Task_create  $Tramp$TT$L$PI$$ti_sysbios_knl_Task_create
   1003a1ed     00056378     0005632c   icall.obj (.text:ICall_createRemoteTasks)
                             0005667e   icall.obj (.text:ICall_primCreateTask$17)
ti_sysbios_knl_Task_restore__E  $Tramp$TT$L$PI$$ti_sysbios_knl_Task_restore__E
   1003ac5d     00056380     00056352   icall.obj (.text:ICall_createRemoteTasks)
                             000569ea   icall.obj (.text:ICall_leaveCSImpl)
ti_sysbios_knl_Semaphore_create  $Tramp$TT$L$PI$$ti_sysbios_knl_Semaphore_create
   1003a801     0005664c     00056626   icall.obj (.text:ICall_newTask$17)
ti_sysbios_hal_Hwi_create  $Tramp$TT$L$PI$$ti_sysbios_hal_Hwi_create
   10039dad     00056708     000566f0   icall.obj (.text:ICall_primRegisterISR$17)
                             00056730   icall.obj (.text:ICall_primRegisterISR_Ext$17)
ti_sysbios_family_arm_m3_Hwi_disableFxn__E  $Tramp$TT$L$PI$$ti_sysbios_family_arm_m3_Hwi_disableFxn__E
   1003b6e1     000569a0     00056992   icall.obj (.text:ICall_enterCSImpl)
                             00056a36   icall.obj (.text:ICall_primDisableMInt$17)
ti_sysbios_family_arm_m3_Hwi_restoreFxn__E  $Tramp$TT$L$PI$$ti_sysbios_family_arm_m3_Hwi_restoreFxn__E
   1003b7af     000569f0     000569e2   icall.obj (.text:ICall_leaveCSImpl)
                             00057a22   board_led.obj (.text:board_led_blinkTimeoutCB$23)
                             00057a88   board_led.obj (.text:Board_Led_control)
ti_sysbios_family_arm_m3_Hwi_enableFxn__E  $Tramp$TT$L$PI$$ti_sysbios_family_arm_m3_Hwi_enableFxn__E
   1003b6ed     00056a4c     00056a40   icall.obj (.text:ICall_primEnableMInt$17)
ti_sysbios_knl_Task_enable__E  $Tramp$TT$L$PI$$ti_sysbios_knl_Task_enable__E
   1003b7d9     00056a54     00056a44   icall.obj (.text:ICall_primEnableMInt$17)
ti_sysbios_hal_Hwi_disableInterrupt__E  $Tramp$TT$L$PI$$ti_sysbios_hal_Hwi_disableInterrupt__E
   1003a679     00056a90     00056a88   icall.obj (.text:ICall_primDisableInt$17)
ti_sysbios_hal_Hwi_enableInterrupt__E  $Tramp$TT$L$PI$$ti_sysbios_hal_Hwi_enableInterrupt__E
   1003a6bd     00056aa4     00056a9c   icall.obj (.text:ICall_primEnableInt$17)
ti_sysbios_knl_Clock_construct  $Tramp$TT$L$PI$$ti_sysbios_knl_Clock_construct
   1003a8ed     00057bb0     00057ba2   timer.obj (.text:Timer_construct)
ti_sysbios_knl_Swi_destruct  $Tramp$TT$L$PI$$ti_sysbios_knl_Swi_destruct
   1003b863     00014538     000144f4   dpl_cc26x2_v1.aem4f : SwiP_tirtos.oem4f (.text:SwiP_destruct)
ti_sysbios_knl_Semaphore_destruct  $Tramp$TT$L$PI$$ti_sysbios_knl_Semaphore_destruct
   1003b85b     00014540     000144ec   dpl_cc26x2_v1.aem4f : SemaphoreP_tirtos.oem4f (.text:SemaphoreP_destruct)
ti_sysbios_family_arm_m3_Hwi_setPriority__E  $Tramp$TT$L$PI$$ti_sysbios_family_arm_m3_Hwi_setPriority__E
   1003b47d     00014548     000144cc   dpl_cc26x2_v1.aem4f : HwiP_tirtos.oem4f (.text:HwiP_setPriority)
ti_sysbios_family_arm_m3_Hwi_enableInterrupt__E  $Tramp$TT$L$PI$$ti_sysbios_family_arm_m3_Hwi_enableInterrupt__E
   1003a6bd     00014550     000144c0   dpl_cc26x2_v1.aem4f : HwiP_tirtos.oem4f (.text:HwiP_enableInterrupt)
ti_sysbios_family_arm_m3_Hwi_disableFxn__E  $Tramp$TT$L$PI$$ti_sysbios_family_arm_m3_Hwi_disableFxn__E
   1003b6e1     00014558     000144bc   dpl_cc26x2_v1.aem4f : HwiP_tirtos.oem4f (.text:HwiP_disable)
ti_sysbios_family_arm_m3_Hwi_destruct  $Tramp$TT$L$PI$$ti_sysbios_family_arm_m3_Hwi_destruct
   1003b7f7     00014560     000144b8   dpl_cc26x2_v1.aem4f : HwiP_tirtos.oem4f (.text:HwiP_destruct)
ti_sysbios_BIOS_getCpuFreq__E  $Tramp$TT$L$PI$$ti_sysbios_BIOS_getCpuFreq__E
   1003b5b1     00014568     000144a4   dpl_cc26x2_v1.aem4f : ClockP_tirtos.oem4f (.text:ClockP_getCpuFreq)
ti_sysbios_knl_Clock_destruct  $Tramp$TT$L$PI$$ti_sysbios_knl_Clock_destruct
   1003b82b     00014570     000144a0   dpl_cc26x2_v1.aem4f : ClockP_tirtos.oem4f (.text:ClockP_destruct)
xdc_runtime_Core_assignParams__I  $Tramp$TT$L$PI$$xdc_runtime_Core_assignParams__I
   1003bc75     00014578     00014300   app_pem4f.oem4f (.text:ti_sysbios_gates_GateMutexPri_Params__init__S)
                             0001430c   rom_sysbios.aem4f : rom_sysbios_config.obj (.text:ti_sysbios_hal_Hwi_Params__init__S)
ti_sysbios_knl_Semaphore_delete  $Tramp$TT$L$PI$$ti_sysbios_knl_Semaphore_delete
   1003b857     00014580     0001424e   dpl_cc26x2_v1.aem4f : SemaphoreP_tirtos.oem4f (.text:SemaphoreP_delete)
ti_sysbios_knl_Queue_destruct  $Tramp$TT$L$PI$$ti_sysbios_knl_Queue_destruct
   1003b84b     00014588     0001411a   rom_sysbios.aem4f : rom_sysbios.obj (.text:ti_sysbios_gates_GateMutexPri_Instance_finalize__E)
ti_sysbios_knl_Clock_logTick__E  $Tramp$TT$L$PI$$ti_sysbios_knl_Clock_logTick__E
   1003a463     00014590     00013f5e   app_pem4f.oem4f (.text:ti_sysbios_knl_Clock_doTick__I)
ti_sysbios_knl_Task_blockI__E  $Tramp$TT$L$PI$$ti_sysbios_knl_Task_blockI__E
   1003a631     00014598     00013ce6   rom_sysbios.aem4f : rom_sysbios.obj (.text:ti_sysbios_knl_Task_block__E)
ti_sysbios_knl_Swi_post__E  $Tramp$TT$L$PI$$ti_sysbios_knl_Swi_post__E
   1003a5e9     000145a0     00013c64   rom_sysbios.aem4f : rom_sysbios.obj (.text:ti_sysbios_knl_Swi_or__E)
                             00013f66   app_pem4f.oem4f (.text:ti_sysbios_knl_Clock_doTick__I)
                             00014504   dpl_cc26x2_v1.aem4f : SwiP_tirtos.oem4f (.text:SwiP_post)
ti_sysbios_knl_Queue_construct  $Tramp$TT$L$PI$$ti_sysbios_knl_Queue_construct
   1003abfd     000145a8     00013c48   rom_sysbios.aem4f : rom_sysbios.obj (.text:ti_sysbios_gates_GateMutexPri_Instance_init__E)
xdc_runtime_Core_assignLabel__I  $Tramp$TT$L$PI$$xdc_runtime_Core_assignLabel__I
   1003bd8d     000145b0     00013c30   app_pem4f.oem4f (.text:ti_sysbios_gates_GateMutexPri_Handle__label__S)
ti_sysbios_BIOS_RtsGateProxy_leave__E  $Tramp$TT$L$PI$$ti_sysbios_BIOS_RtsGateProxy_leave__E
   1003b7e3     000145b8     00013c16   app_pem4f.oem4f (.text:ti_sysbios_BIOS_rtsUnlock__I)
ti_sysbios_knl_Swi_construct  $Tramp$TT$L$PI$$ti_sysbios_knl_Swi_construct
   1003a465     000145c0     0001395e   rom_sysbios.aem4f : rom_sysbios.obj (.text:ti_sysbios_knl_Swi_construct2__E)
ti_sysbios_BIOS_RtsGateProxy_enter__E  $Tramp$TT$L$PI$$ti_sysbios_BIOS_RtsGateProxy_enter__E
   1003b7df     000145c8     00013572   app_pem4f.oem4f (.text:ti_sysbios_BIOS_rtsLock__I)
xdc_runtime_Core_deleteObject__I  $Tramp$TT$L$PI$$xdc_runtime_Core_deleteObject__I
   1003bb21     000145d0     00013152   app_pem4f.oem4f (.text:ti_sysbios_gates_GateMutexPri_Object__delete__S)
ti_sysbios_knl_Clock_getTicks__E  $Tramp$TT$L$PI$$ti_sysbios_knl_Clock_getTicks__E
   1003a925     000145d8     00012a1e   rom_sysbios.aem4f : rom_sysbios.obj (.text:ti_sysbios_knl_Clock_getTimeout__E)
ti_sysbios_knl_Semaphore_create  $Tramp$TT$L$PI$$ti_sysbios_knl_Semaphore_create
   1003a801     000145e0     000127f4   dpl_cc26x2_v1.aem4f : SemaphoreP_tirtos.oem4f (.text:SemaphoreP_createBinary)
ti_sysbios_knl_Semaphore_construct  $Tramp$TT$L$PI$$ti_sysbios_knl_Semaphore_construct
   1003a95d     000145e8     000127ca   dpl_cc26x2_v1.aem4f : SemaphoreP_tirtos.oem4f (.text:SemaphoreP_constructBinary)
ti_sysbios_knl_Semaphore_Params__init__S  $Tramp$TT$L$PI$$ti_sysbios_knl_Semaphore_Params__init__S
   1003b759     000145f0     000127ba   dpl_cc26x2_v1.aem4f : SemaphoreP_tirtos.oem4f (.text:SemaphoreP_constructBinary)
                             000127e4                       : SemaphoreP_tirtos.oem4f (.text:SemaphoreP_createBinary)
xdc_runtime_Core_createObject__I  $Tramp$TT$L$PI$$xdc_runtime_Core_createObject__I
   1003ba31     000145f8     000125d0   app_pem4f.oem4f (.text:ti_sysbios_gates_GateMutexPri_Object__create__S)
                             00012600   app_pem4f.oem4f (.text:ti_sysbios_gates_GateMutexPri_create)
ti_sysbios_knl_Task_startup__E  $Tramp$TT$L$PI$$ti_sysbios_knl_Task_startup__E
   1003b873     00014600     00012580   app_pem4f.oem4f (.text:ti_sysbios_BIOS_startFunc__I)
ti_sysbios_knl_Swi_startup__E  $Tramp$TT$L$PI$$ti_sysbios_knl_Swi_startup__E
   1003b7d3     00014608     0001257c   app_pem4f.oem4f (.text:ti_sysbios_BIOS_startFunc__I)
ti_sysbios_hal_Hwi_startup__E  $Tramp$TT$L$PI$$ti_sysbios_hal_Hwi_startup__E
   1003b799     00014610     00012578   app_pem4f.oem4f (.text:ti_sysbios_BIOS_startFunc__I)
ti_sysbios_family_arm_cc26xx_Timer_startup__E  $Tramp$TT$L$PI$$ti_sysbios_family_arm_cc26xx_Timer_startup__E
   1003a9cd     00014618     00012574   app_pem4f.oem4f (.text:ti_sysbios_BIOS_startFunc__I)
xdc_runtime_System_atexit__E  $Tramp$TT$L$PI$$xdc_runtime_System_atexit__E
   1003bc29     00014620     0001256c   app_pem4f.oem4f (.text:ti_sysbios_BIOS_startFunc__I)
ti_sysbios_BIOS_linkedWithIncorrectBootLibrary__E  $Tramp$TT$L$PI$$ti_sysbios_BIOS_linkedWithIncorrectBootLibrary__E
   10039bff     00014628     00012566   app_pem4f.oem4f (.text:ti_sysbios_BIOS_startFunc__I)
xdc_runtime_Startup_rtsDone__E  $Tramp$TT$L$PI$$xdc_runtime_Startup_rtsDone__E
   1003bf5d     00014630     0001255e   app_pem4f.oem4f (.text:ti_sysbios_BIOS_startFunc__I)
ti_sysbios_BIOS_setThreadType__E  $Tramp$TT$L$PI$$ti_sysbios_BIOS_setThreadType__E
   1003b5c5     00014638     00012538   app_pem4f.oem4f (.text:ti_sysbios_BIOS_atExitFunc__I)
                             0001394e   app_pem4f.oem4f (.text:ti_sysbios_BIOS_errorRaiseHook__I)
                             00013cce   app_pem4f.oem4f (.text:ti_sysbios_BIOS_exitFunc__I)
ti_sysbios_knl_Swi_disable__E  $Tramp$TT$L$PI$$ti_sysbios_knl_Swi_disable__E
   1003b525     00014640     0001252e   app_pem4f.oem4f (.text:ti_sysbios_BIOS_atExitFunc__I)
                             000144f8   dpl_cc26x2_v1.aem4f : SwiP_tirtos.oem4f (.text:SwiP_disable)
ti_sysbios_knl_Queue_next__E  $Tramp$TT$L$PI$$ti_sysbios_knl_Queue_next__E
   1003b853     00014648     000122c8   rom_sysbios.aem4f : rom_sysbios.obj (.text:ti_sysbios_gates_GateMutexPri_insertPri__I)
ti_sysbios_knl_Queue_head__E  $Tramp$TT$L$PI$$ti_sysbios_knl_Queue_head__E
   1003b84f     00014650     000122be   rom_sysbios.aem4f : rom_sysbios.obj (.text:ti_sysbios_gates_GateMutexPri_insertPri__I)
ti_sysbios_knl_Queue_Object__get__S  $Tramp$TT$L$PI$$ti_sysbios_knl_Queue_Object__get__S
   1003b421     00014658     00012212   rom_sysbios.aem4f : rom_sysbios.obj (.text:ti_sysbios_knl_Swi_setPri__E)
ti_sysbios_family_arm_m3_Hwi_construct  $Tramp$TT$L$PI$$ti_sysbios_family_arm_m3_Hwi_construct
   10039fad     00014660     000117fa   rom_sysbios.aem4f : rom_sysbios.obj (.text:ti_sysbios_family_arm_m3_Hwi_construct2__E)
ti_sysbios_knl_Swi_Params__init__S  $Tramp$TT$L$PI$$ti_sysbios_knl_Swi_Params__init__S
   1003b765     00014668     000115de   dpl_cc26x2_v1.aem4f : SwiP_tirtos.oem4f (.text:SwiP_construct)
ti_sysbios_family_arm_m3_Hwi_Params__init__S  $Tramp$TT$L$PI$$ti_sysbios_family_arm_m3_Hwi_Params__init__S
   1003b6d5     00014670     00011348   dpl_cc26x2_v1.aem4f : HwiP_tirtos.oem4f (.text:HwiP_construct)
ti_sysbios_knl_Clock_construct  $Tramp$TT$L$PI$$ti_sysbios_knl_Clock_construct
   1003a8ed     00014678     0000ff12   dpl_cc26x2_v1.aem4f : ClockP_tirtos.oem4f (.text:ClockP_construct)
ti_sysbios_knl_Clock_Params__init__S  $Tramp$TT$L$PI$$ti_sysbios_knl_Clock_Params__init__S
   1003b711     00014680     0000fef8   dpl_cc26x2_v1.aem4f : ClockP_tirtos.oem4f (.text:ClockP_construct)
xdc_runtime_System_exit__E  $Tramp$TT$L$PI$$xdc_runtime_System_exit__E
   1003be69     00014688     0000f7cc   boot.aem4f : boot.oem4f (.text)
                             00013cd4   app_pem4f.oem4f (.text:ti_sysbios_BIOS_exitFunc__I)
ti_sysbios_knl_Queue_create  $Tramp$TT$L$PI$$ti_sysbios_knl_Queue_create
   1003ac2d     00014690     0000e522   npi_task.obj (.text:NPITask_task)
                             0000e52c   npi_task.obj (.text:NPITask_task)
ti_sysbios_BIOS_start__E  $Tramp$TT$L$PI$$ti_sysbios_BIOS_start__E
   1003b621     00014698     0000e494   main.obj (.text:main)
ti_sysbios_knl_Task_construct  $Tramp$TT$L$PI$$ti_sysbios_knl_Task_construct
   1003a3b5     000146a0     0000e490   main.obj (.text:main)
                             0000ffba   npi_task.obj (.text:NPITask_createTask)
ti_sysbios_knl_Task_Params__init__S  $Tramp$TT$L$PI$$ti_sysbios_knl_Task_Params__init__S
   1003b771     000146a8     0000e472   main.obj (.text:main)
                             0000ffa0   npi_task.obj (.text:NPITask_createTask)
ti_sysbios_knl_Task_unblockI__E  $Tramp$TT$L$PI$$ti_sysbios_knl_Task_unblockI__E
   1003ab39     000146b0     0000e128   rom_sysbios.aem4f : rom_sysbios.obj (.text:ti_sysbios_gates_GateMutexPri_leave__E)
ti_sysbios_knl_Task_self__E  $Tramp$TT$L$PI$$ti_sysbios_knl_Task_self__E
   1003b681     000146b8     0000cf2e   rom_sysbios.aem4f : rom_sysbios.obj (.text:ti_sysbios_gates_GateMutexPri_enter__E)
                             0000e0da                     : rom_sysbios.obj (.text:ti_sysbios_gates_GateMutexPri_leave__E)
ti_sysbios_knl_Clock_scheduleNextTick__E  $Tramp$TT$L$PI$$ti_sysbios_knl_Clock_scheduleNextTick__E
   1003b3a1     000146c0     0000c57a   rom_sysbios.aem4f : rom_sysbios.obj (.text:ti_sysbios_knl_Clock_workFuncDynamic__E)
ti_sysbios_knl_Clock_walkQueueDynamic__E  $Tramp$TT$L$PI$$ti_sysbios_knl_Clock_walkQueueDynamic__E
   10039879     000146c8     0000c542   rom_sysbios.aem4f : rom_sysbios.obj (.text:ti_sysbios_knl_Clock_workFuncDynamic__E)
                             0000c55e                     : rom_sysbios.obj (.text:ti_sysbios_knl_Clock_workFuncDynamic__E)
ti_sysbios_knl_Clock_TimerProxy_getCurrentTick__E  $Tramp$TT$L$PI$$ti_sysbios_knl_Clock_TimerProxy_getCurrentTick__E
   1003b651     000146d0     0000c510   rom_sysbios.aem4f : rom_sysbios.obj (.text:ti_sysbios_knl_Clock_workFuncDynamic__E)
                             00012946                     : rom_sysbios.obj (.text:ti_sysbios_knl_Clock_getTicksUntilInterrupt__E)
ti_sysbios_knl_Task_restore__E  $Tramp$TT$L$PI$$ti_sysbios_knl_Task_restore__E
   1003ac5d     000146d8     0000bdb2   rom_sysbios.aem4f : rom_sysbios.obj (.text:ti_sysbios_knl_Task_setPri__E)
                             0000cf52                     : rom_sysbios.obj (.text:ti_sysbios_gates_GateMutexPri_enter__E)
                             0000cf60                     : rom_sysbios.obj (.text:ti_sysbios_gates_GateMutexPri_enter__E)
                             0000cf96                     : rom_sysbios.obj (.text:ti_sysbios_gates_GateMutexPri_enter__E)
                             0000e138                     : rom_sysbios.obj (.text:ti_sysbios_gates_GateMutexPri_leave__E)
                             00012c28   dpl_cc26x2_v1.aem4f : PowerCC26X2_tirtos.oem4f (.text:PowerCC26XX_schedulerRestore)
ti_sysbios_knl_Queue_remove__E  $Tramp$TT$L$PI$$ti_sysbios_knl_Queue_remove__E
   1003b6bb     000146e0     0000bd66   rom_sysbios.aem4f : rom_sysbios.obj (.text:ti_sysbios_knl_Task_setPri__E)
ti_sysbios_knl_Task_disable__E  $Tramp$TT$L$PI$$ti_sysbios_knl_Task_disable__E
   1003b53d     000146e8     0000bd2c   rom_sysbios.aem4f : rom_sysbios.obj (.text:ti_sysbios_knl_Task_setPri__E)
                             0000cf3c                     : rom_sysbios.obj (.text:ti_sysbios_gates_GateMutexPri_enter__E)
                             0000e0e4                     : rom_sysbios.obj (.text:ti_sysbios_gates_GateMutexPri_leave__E)
                             00012532   app_pem4f.oem4f (.text:ti_sysbios_BIOS_atExitFunc__I)
                             00012bee   dpl_cc26x2_v1.aem4f : PowerCC26X2_tirtos.oem4f (.text:PowerCC26XX_schedulerDisable)
ti_sysbios_knl_Clock_stop__E  $Tramp$TT$L$PI$$ti_sysbios_knl_Clock_stop__E
   1003af29     000146f0     0000afaa   dpl_cc26x2_v1.aem4f : PowerCC26X2_tirtos.oem4f (.text:PowerCC26XX_standbyPolicy)
                             000144b4                       : ClockP_tirtos.oem4f (.text:ClockP_stop)
ti_sysbios_knl_Clock_start__E  $Tramp$TT$L$PI$$ti_sysbios_knl_Clock_start__E
   1003b599     000146f8     0000af9e   dpl_cc26x2_v1.aem4f : PowerCC26X2_tirtos.oem4f (.text:PowerCC26XX_standbyPolicy)
                             000144b0                       : ClockP_tirtos.oem4f (.text:ClockP_start)
ti_sysbios_knl_Clock_setTimeout__E  $Tramp$TT$L$PI$$ti_sysbios_knl_Clock_setTimeout__E
   1003b833     00014700     00004ec6   mt_util.obj (.text:MtUtil_commandProcessing)
                             0000af98   dpl_cc26x2_v1.aem4f : PowerCC26X2_tirtos.oem4f (.text:PowerCC26XX_standbyPolicy)
                             000144ac                       : ClockP_tirtos.oem4f (.text:ClockP_setTimeout)
ti_sysbios_knl_Swi_restore__E  $Tramp$TT$L$PI$$ti_sysbios_knl_Swi_restore__E
   1003a83d     00014708     00004daa   drivers_cc26x2_v1.aem4f : PowerCC26X2.oem4f (.text:Power_sleep)
                             00009084   rf_multiMode_cc26x2_v1.aem4f : RFCC26X2_multiMode.oem4f (.text:RF_pendCmd)
                             000090b8                                : RFCC26X2_multiMode.oem4f (.text:RF_pendCmd)
                             00009110                                : RFCC26X2_multiMode.oem4f (.text:RF_pendCmd)
                             00009124                                : RFCC26X2_multiMode.oem4f (.text:RF_pendCmd)
ti_sysbios_family_arm_m3_Hwi_restoreFxn__E  $Tramp$TT$L$PI$$ti_sysbios_family_arm_m3_Hwi_restoreFxn__E
   1003b7af     00014710     00002b36   rf_multiMode_cc26x2_v1.aem4f : RFCC26X2_multiMode.oem4f (.text:RF_fsmActiveState)
                             00002bb6                                : RFCC26X2_multiMode.oem4f (.text:RF_fsmActiveState)
                             00002c10                                : RFCC26X2_multiMode.oem4f (.text:RF_fsmActiveState)
                             00002c2a                                : RFCC26X2_multiMode.oem4f (.text:RF_fsmActiveState)
                             00004000   drivers_cc26x2_v1.aem4f : SPICC26XXDMA.oem4f (.text:SPICC26XXDMA_transfer)
                             00004022                           : SPICC26XXDMA.oem4f (.text:SPICC26XXDMA_transfer)
                             0000406a                           : SPICC26XXDMA.oem4f (.text:SPICC26XXDMA_transfer)
                             00004164                           : SPICC26XXDMA.oem4f (.text:SPICC26XXDMA_transfer)
                             000058e4   rf_multiMode_cc26x2_v1.aem4f : RFCC26X2_multiMode.oem4f (.text:RF_scheduleCmd)
                             0000630a   drivers_cc26x2_v1.aem4f : UARTCC26XX.oem4f (.text:UARTCC26XX_open)
                             00006316                           : UARTCC26XX.oem4f (.text:UARTCC26XX_open)
                             00006398                           : UARTCC26XX.oem4f (.text:UARTCC26XX_open)
                             00006e26                           : NVSCC26XX.oem4f (.text:NVSCC26XX_write)
                             0000745c   rf_multiMode_cc26x2_v1.aem4f : RFCC26X2_multiMode.oem4f (.text:RF_getInfo)
                             00007752                                : RFCC26X2_multiMode.oem4f (.text:RF_close)
                             000077aa                                : RFCC26X2_multiMode.oem4f (.text:RF_close)
                             00007b48                                : RFCC26X2_multiMode.oem4f (.text:RF_abortCmd)
                             00007ccc   drivers_cc26x2_v1.aem4f : UARTCC26XX.oem4f (.text:UARTCC26XX_read)
                             00007d10                           : UARTCC26XX.oem4f (.text:UARTCC26XX_read)
                             00007d2c                           : UARTCC26XX.oem4f (.text:UARTCC26XX_read)
                             00007d7a                           : UARTCC26XX.oem4f (.text:UARTCC26XX_read)
                             00007ee6                           : SPICC26XXDMA.oem4f (.text:SPICC26XXDMA_open)
                             00007ef6                           : SPICC26XXDMA.oem4f (.text:SPICC26XXDMA_open)
                             000083be   rf_multiMode_cc26x2_v1.aem4f : RFCC26X2_multiMode.oem4f (.text:RF_radioOpDoneCb)
                             000087b2                                : RFCC26X2_multiMode.oem4f (.text:RF_open)
                             000087d0                                : RFCC26X2_multiMode.oem4f (.text:RF_open)
                             000088da   drivers_cc26x2_v1.aem4f : GPIOCC26XX.oem4f (.text:GPIO_setConfig)
                             00008904                           : GPIOCC26XX.oem4f (.text:GPIO_setConfig)
                             00008aaa                           : UARTCC26XX.oem4f (.text:UARTCC26XX_write)
                             00008ac6                           : UARTCC26XX.oem4f (.text:UARTCC26XX_write)
                             00008b62                           : UARTCC26XX.oem4f (.text:UARTCC26XX_write)
                             00009156                           : SPICC26XXDMA.oem4f (.text:SPICC26XXDMA_transferCancel)
                             000091cc                           : SPICC26XXDMA.oem4f (.text:SPICC26XXDMA_transferCancel)
                             0000921e                           : SPICC26XXDMA.oem4f (.text:SPICC26XXDMA_transferCancel)
                             0000977c                           : PINCC26XX.oem4f (.text:PINCC26XX_setIoCfg)
                             00009982                           : GPIOCC26XX.oem4f (.text:GPIO_init)
                             00009988                           : GPIOCC26XX.oem4f (.text:GPIO_init)
                             00009d16   rf_multiMode_cc26x2_v1.aem4f : RFCC26X2_multiMode.oem4f (.text:RF_swiHw)
                             0000a584   drivers_cc26x2_v1.aem4f : PowerCC26X2.oem4f (.text:Power_releaseDependency)
                             0000a646   rf_multiMode_cc26x2_v1.aem4f : RFCC26X2_multiMode.oem4f (.text:RF_control)
                             0000a710   drivers_cc26x2_v1.aem4f : PowerCC26X2.oem4f (.text:Power_setDependency)
                             0000ba90   rf_multiMode_cc26x2_v1.aem4f : RFCC26X2_multiMode.oem4f (.text:RF_postCmd)
                             0000bf2e   drivers_cc26x2_v1.aem4f : UARTCC26XX.oem4f (.text:UARTCC26XX_swiIntFxn)
                             0000bf60                           : UARTCC26XX.oem4f (.text:UARTCC26XX_swiIntFxn)
                             0000cb1c                           : SPICC26XXDMA.oem4f (.text:SPICC26XXDMA_swiFxn)
                             0000cd62                           : UARTCC26XX.oem4f (.text:UARTCC26XX_close)
                             0000cd92                           : UARTCC26XX.oem4f (.text:UARTCC26XX_writeCancel)
                             0000cd9e                           : UARTCC26XX.oem4f (.text:UARTCC26XX_writeCancel)
                             0000cde4                           : UARTCC26XX.oem4f (.text:UARTCC26XX_writeCancel)
                             0000d0ac   rf_multiMode_cc26x2_v1.aem4f : RFCC26X2_multiMode.oem4f (.text:RF_ratFreeChannel)
                             0000d402   drivers_cc26x2_v1.aem4f : AESCCMCC26XX.oem4f (.text:AESCCM_open)
                             0000d410                           : AESCCMCC26XX.oem4f (.text:AESCCM_open)
                             0000d614   rf_multiMode_cc26x2_v1.aem4f : RFCC26X2_multiMode.oem4f (.text:RF_yield)
                             0000d648                                : RFCC26X2_multiMode.oem4f (.text:RF_yield)
                             0000e03e                                : RFCC26X2_multiMode.oem4f (.text:RF_issueRadioFreeCb)
                             0000e052                                : RFCC26X2_multiMode.oem4f (.text:RF_issueRadioFreeCb)
                             0000e2c2   drivers_cc26x2_v1.aem4f : UARTCC26XX.oem4f (.text:UARTCC26XX_readCancel)
                             0000e2cc                           : UARTCC26XX.oem4f (.text:UARTCC26XX_readCancel)
                             0000e2e2                           : UARTCC26XX.oem4f (.text:UARTCC26XX_readCancel)
                             0000e58e   rf_multiMode_cc26x2_v1.aem4f : RFCC26X2_multiMode.oem4f (.text:RF_getCurrentTime)
                             0000e5ca                                : RFCC26X2_multiMode.oem4f (.text:RF_getCurrentTime)
                             0000e63c                                : RFCC26X2_multiMode.oem4f (.text:RF_ratDisableChannel)
                             0000e6a0                                : RFCC26X2_multiMode.oem4f (.text:RF_ratSetupChannel)
                             0000e96a   drivers_cc26x2_v1.aem4f : CryptoResourceCC26XX.oem4f (.text:CryptoResourceCC26XX_constructRTOSObjects)
                             0000e9ce                           : UARTCC26XX.oem4f (.text:UARTCC26XX_control)
                             0000ec96                           : GPIOCC26XX.oem4f (.text:GPIO_write)
                             0000f2de   rf_multiMode_cc26x2_v1.aem4f : RFCC26X2_multiMode.oem4f (.text:RF_dispatchNextEvent)
                             0000f3e4   drivers_cc26x2_v1.aem4f : NVSCC26XX.oem4f (.text:doErase)
                             0000f652                           : PowerCC26X2_calibrateRCOSC.oem4f (.text:PowerCC26X2_initiateCalibration)
                             0000fb6c                           : NVSCC26XX.oem4f (.text:NVSCC26XX_init)
                             0000fb7c                           : NVSCC26XX.oem4f (.text:NVSCC26XX_init)
                             0000ff66                           : GPIOCC26XX.oem4f (.text:GPIO_enableInt)
                             0001054c                           : UDMACC26XX.oem4f (.text:UDMACC26XX_open)
                             000109e6                           : PINCC26XX.oem4f (.text:PIN_setOutputEnable)
                             00010bc0                           : RingBuf.oem4f (.text:RingBuf_put)
                             00010bea                           : RingBuf.oem4f (.text:RingBuf_put)
                             00010c20                           : CryptoResourceCC26XX.oem4f (.text:CryptoResourceCC26XX_destructRTOSObjects)
                             00010e02                           : SPI.oem4f (.text:SPI_init)
                             00010e46                           : UART.oem4f (.text:UART_init)
                             00010f58                           : PowerCC26X2.oem4f (.text:switchXOSCHF)
                             00011116                           : PowerCC26X2.oem4f (.text:PowerCC26XX_isStableXOSC_HF)
                             0001115e                           : PowerCC26X2.oem4f (.text:PowerCC26XX_switchXOSC_HF)
                             0001119a                           : RingBuf.oem4f (.text:RingBuf_get)
                             000111a2                           : RingBuf.oem4f (.text:RingBuf_get)
                             000113d2                           : AESCCMCC26XX.oem4f (.text:AESCCM_init)
                             00011c04                           : UDMACC26XX.oem4f (.text:UDMACC26XX_close)
                             00011d90                           : NVSSPI25X.oem4f (.text:NVSSPI25X_init)
                             00011da0                           : NVSSPI25X.oem4f (.text:NVSSPI25X_init)
                             00011e06                           : PowerCC26X2.oem4f (.text:Power_releaseConstraint)
                             00011ed6   rf_multiMode_cc26x2_v1.aem4f : RFCC26X2_multiMode.oem4f (.text:RF_powerConstraintRelease)
                             00011f40                                : RFCC26X2_multiMode.oem4f (.text:RF_runDirectImmediateCmd)
                             0001224e                                : RFCC26X2_multiMode.oem4f (.text:RF_queueEnd)
                             00012430   drivers_cc26x2_v1.aem4f : PowerCC26X2.oem4f (.text:Power_setConstraint)
                             000129b0                           : List.oem4f (.text:List_insert)
                             00012e3c                           : List.oem4f (.text:List_put)
                             00012e62                           : List.oem4f (.text:List_putHead)
                             00012e88                           : List.oem4f (.text:List_remove)
                             0001317e                           : List.oem4f (.text:List_get)
                             00013322                           : PowerCC26X2.oem4f (.text:Power_unregisterNotify)
                             00013818   rf_multiMode_cc26x2_v1.aem4f : RFCC26X2_multiMode.oem4f (.text:RF_powerConstraintSet)
                             00013d3a   drivers_cc26x2_v1.aem4f : List.oem4f (.text:List_clearList)
ti_sysbios_knl_Queue_dequeue__E  $Tramp$TT$L$PI$$ti_sysbios_knl_Queue_dequeue__E
   1003b741     00014718     00002786   npi_task.obj (.text:NPITask_process$7)
                             00002904   npi_task.obj (.text:NPITask_process$7)
                             0000e10a   rom_sysbios.aem4f : rom_sysbios.obj (.text:ti_sysbios_gates_GateMutexPri_leave__E)
ti_sysbios_knl_Queue_empty__E  $Tramp$TT$L$PI$$ti_sysbios_knl_Queue_empty__E
   1003b6ad     00014720     00002770   npi_task.obj (.text:NPITask_process$7)
                             000027b4   npi_task.obj (.text:NPITask_process$7)
                             0000293a   npi_task.obj (.text:NPITask_process$7)
                             00002962   npi_task.obj (.text:NPITask_process$7)
                             0000bd6c   rom_sysbios.aem4f : rom_sysbios.obj (.text:ti_sysbios_knl_Task_setPri__E)
                             0000e102                     : rom_sysbios.obj (.text:ti_sysbios_gates_GateMutexPri_leave__E)
ti_sysbios_knl_Semaphore_post__E  $Tramp$TT$L$PI$$ti_sysbios_knl_Semaphore_post__E
   100399d1     00014728     00002746   npi_task.obj (.text:NPITask_process$7)
                             000027bc   npi_task.obj (.text:NPITask_process$7)
                             000028f8   npi_task.obj (.text:NPITask_process$7)
                             00002942   npi_task.obj (.text:NPITask_process$7)
                             00002976   npi_task.obj (.text:NPITask_process$7)
                             0000df64   npi_task.obj (.text:NPITask_transportRXCallBack$7)
                             0000f60e   npi_task.obj (.text:NPITask_incomingFrameCB$7)
                             00012f60   npi_task.obj (.text:NPITask_transportTxDoneCallBack$7)
                             000144f0   dpl_cc26x2_v1.aem4f : SemaphoreP_tirtos.oem4f (.text:SemaphoreP_post)
ti_sysbios_knl_Queue_enqueue__E  $Tramp$TT$L$PI$$ti_sysbios_knl_Queue_enqueue__E
   1003b74d     00014730     00002738   npi_task.obj (.text:NPITask_process$7)
                             0000bd84   rom_sysbios.aem4f : rom_sysbios.obj (.text:ti_sysbios_knl_Task_setPri__E)
                             0000f600   npi_task.obj (.text:NPITask_incomingFrameCB$7)
                             000122e6   rom_sysbios.aem4f : rom_sysbios.obj (.text:ti_sysbios_gates_GateMutexPri_insertPri__I)
                             0001452c                     : rom_sysbios.obj (.text:ti_sysbios_knl_Queue_insert__E)
ti_sysbios_knl_Semaphore_pend__E  $Tramp$TT$L$PI$$ti_sysbios_knl_Semaphore_pend__E
   10039005     00014738     00002696   npi_task.obj (.text:NPITask_process$7)
                             00013fcc   dpl_cc26x2_v1.aem4f : SemaphoreP_tirtos.oem4f (.text:SemaphoreP_pend)

[87 trampolines]
[263 trampoline calls]


GLOBAL SYMBOLS: SORTED ALPHABETICALLY BY Name 

address   name                                                                 
-------   ----                                                                 
00015538  ADCBuf_count                                                         
00015539  ADC_count                                                            
000143e3  AESCCM_Operation_init                                                
00014015  AESCCM_Params_init                                                   
0001367f  AESCCM_close                                                         
000155cc  AESCCM_config                                                        
0001553e  AESCCM_count                                                         
00015528  AESCCM_defaultParams                                                 
2000195c  AESCCM_handle                                                        
000113a9  AESCCM_init                                                          
0001443d  AESCCM_oneStepDecrypt                                                
00014443  AESCCM_oneStepEncrypt                                                
0000d3dd  AESCCM_open                                                          
0001553f  AESECB_count                                                         
2000313c  ApiMac_appEntity                                                     
00011857  ApiMac_buildMsgCapInfo                                               
00011b69  ApiMac_convertCapabilityInfo                                         
00013cf1  ApiMac_enableFH                                                      
20003148  ApiMac_extAddr                                                       
000122ed  ApiMac_mlmeGetReqArrayLen                                            
00013d05  ApiMac_mlmeResetReq                                                  
00013a29  ApiMac_mlmeSetReqArray                                               
00013d19  ApiMac_randomByte                                                    
20003170  AppTaskId                                                            
000151c4  BoardGpioInitTable                                                   
00057a45  Board_Led_control                                                    
00014339  ClockP_Params_init                                                   
0000fedd  ClockP_construct                                                     
000144a1  ClockP_destruct                                                      
000144a5  ClockP_getCpuFreq                                                    
1003a925  ClockP_getSystemTicks                                                
000144a9  ClockP_getTimeout                                                    
00014025  ClockP_isActive                                                      
000144ad  ClockP_setTimeout                                                    
000144b1  ClockP_start                                                         
000144b5  ClockP_stop                                                          
20004794  ClockP_tickPeriod                                                    
00014165  CryptoKeyPlaintext_initBlankKey                                      
00014165  CryptoKeyPlaintext_initKey                                           
20004670  CryptoResourceCC26XX_accessSemaphore                                 
0000e925  CryptoResourceCC26XX_constructRTOSObjects                            
00010bf5  CryptoResourceCC26XX_destructRTOSObjects                             
2000468c  CryptoResourceCC26XX_hwi                                             
200046a8  CryptoResourceCC26XX_operationSemaphore                              
2000322d  CryptoResourceCC26XX_pollingFlag                                     
00015540  Display_count                                                        
0001553a  ECDH_count                                                           
0001553b  ECDSA_count                                                          
0001553c  ECJPAKE_count                                                        
000154c8  GPIOCC26XX_config                                                    
0000ff2d  GPIO_enableInt                                                       
0001231d  GPIO_hwiIntFxn                                                       
00009969  GPIO_init                                                            
00012649  GPIO_setCallback                                                     
00008875  GPIO_setConfig                                                       
0000ec45  GPIO_write                                                           
20002b38  HEAPMGR_SIZE                                                         
00057949  HalTRNG_GetTRNG                                                      
00057985  HalTRNG_InitTRNG                                                     
00014035  HwiP_Params_init                                                     
0001132d  HwiP_construct                                                       
000144b9  HwiP_destruct                                                        
000144bd  HwiP_disable                                                         
000144c1  HwiP_enableInterrupt                                                 
000144c5  HwiP_post                                                            
1003b7af  HwiP_restore                                                         
000144c9  HwiP_setFunc                                                         
000144cd  HwiP_setPriority                                                     
00015541  I2C_count                                                            
00056f39  ICallPlatform_pwrConfigACAction                                      
00057035  ICallPlatform_pwrDispense                                            
00057075  ICallPlatform_pwrGetTransitionState                                  
00057065  ICallPlatform_pwrGetXOSCStartupTime                                  
00057083  ICallPlatform_pwrIsStableXOSCHF                                      
00056fa9  ICallPlatform_pwrRegisterNotify                                      
0005704d  ICallPlatform_pwrRequire                                             
00057091  ICallPlatform_pwrSwitchXOSCHF                                        
00056ec5  ICallPlatform_pwrUpdActivityCounter                                  
000562f9  ICall_createRemoteTasks                                              
20002b14  ICall_dispatcher                                                     
00056987  ICall_enterCSImpl                                                    
20002b18  ICall_enterCriticalSection                                           
00056879  ICall_heapFree                                                       
0005627d  ICall_heapMalloc                                                     
000569db  ICall_leaveCSImpl                                                    
20002b1c  ICall_leaveCriticalSection                                           
000567b5  ICall_searchServiceEntity                                            
00013d2d  List_clearList                                                       
00013165  List_get                                                             
0001298d  List_insert                                                          
00012e1d  List_put                                                             
00012e43  List_putHead                                                         
00012e69  List_remove                                                          
00009d9d  MAC_CbackEvent                                                       
00013d41  MAC_CbackQueryRetransmit                                             
000144d1  MAC_EnableFH                                                         
00003221  MAC_McpsDataReq                                                      
00014045  MAC_McpsPurgeReq                                                     
00014343  MAC_MlmeAssociateReq                                                 
0001434d  MAC_MlmeAssociateRsp                                                 
00014357  MAC_MlmeDisassociateReq                                              
000144d5  MAC_MlmeFHGetReq                                                     
000144d9  MAC_MlmeFHGetReqSize                                                 
000144dd  MAC_MlmeFHSetReq                                                     
00012ad5  MAC_MlmeGetPointerSecurityReq                                        
000107bd  MAC_MlmeGetReq                                                       
0001369d  MAC_MlmeGetReqSize                                                   
0000457d  MAC_MlmeGetSecurityReq                                               
00010805  MAC_MlmeGetSecurityReqSize                                           
00014361  MAC_MlmeOrphanRsp                                                    
000143eb  MAC_MlmePollReq                                                      
0000201d  MAC_MlmeResetReq                                                     
0000aaf1  MAC_MlmeScanReq                                                      
00004aad  MAC_MlmeSetReq                                                       
000034a1  MAC_MlmeSetSecurityReq                                               
000143f3  MAC_MlmeStartReq                                                     
000143fb  MAC_MlmeSyncReq                                                      
0001436b  MAC_MlmeWSAsyncReq                                                   
000143cf  MAC_RandomByte                                                       
0000f57d  MAC_ResumeReq                                                        
000132ad  MAC_SrcMatchAckAllPending                                            
00013d55  MAC_SrcMatchCheckAllPending                                          
0000d1cd  MAC_SrcMatchEnable                                                   
000144e1  MAC_StartFH                                                          
0000394d  MCP_task                                                             
000055e1  MT_sendResponse                                                      
00014449  Main_excHandler                                                      
0001444f  Main_halAssertHandler                                                
20001f10  Main_user1Cfg                                                        
00012675  MtMac_AssociateCnf                                                   
00011b9f  MtMac_AssociateInd                                                   
00013d69  MtMac_AsyncCnf                                                       
00014403  MtMac_AsyncInd                                                       
0000721d  MtMac_BeaconNotifyInd                                                
00010f69  MtMac_CommStatusInd                                                  
0001042d  MtMac_DataCnf                                                        
0001440b  MtMac_DataInd                                                        
00012afd  MtMac_DisassociateCnf                                                
000126a1  MtMac_DisassociateInd                                                
00012e8f  MtMac_OrphanInd                                                      
00013975  MtMac_PollCnf                                                        
00012f01  MtMac_PollInd                                                        
0001398f  MtMac_PurgeCnf                                                       
0000a00d  MtMac_ScanCnf                                                        
00013d7d  MtMac_StartCnf                                                       
0001136b  MtMac_SyncLossInd                                                    
00000041  MtMac_commandProcessing                                              
00003701  MtSys_commandProcessing                                              
00011c0d  MtSys_resetReq                                                       
00004df5  MtUtil_commandProcessing                                             
00011c41  NOROM_AESConfigureCCMCtrl                                            
00011c75  NOROM_AESReadFromKeyStore                                            
00011ca9  NOROM_AESReadTag                                                     
0001084d  NOROM_AESStartDMAOperation                                           
00012b25  NOROM_AESVerifyTag                                                   
00012b4d  NOROM_AESWaitForIRQFlags                                             
0001102d  NOROM_AESWriteCCMInitializationVector                                
0000b775  NOROM_AESWriteToKeyStore                                             
000141b9  NOROM_CPUcpsid                                                       
000141c5  NOROM_CPUcpsie                                                       
00014455  NOROM_CPUdelay                                                       
000136b9  NOROM_ChipInfo_GetChipFamily                                         
00010479  NOROM_ChipInfo_GetChipType                                           
00011421  NOROM_ChipInfo_GetHwRevision                                         
00013a41  NOROM_ChipInfo_GetPackageType                                        
000136d5  NOROM_FlashProgram                                                   
000136f1  NOROM_FlashSectorErase                                               
0000e4ad  NOROM_OSCHF_AttemptToSwitchToXosc                                    
0000c16d  NOROM_OSCHF_GetStartupTime                                           
00010c39  NOROM_OSCHF_SwitchToRcOscTurnOffXosc                                 
00012b75  NOROM_OSCHF_TurnOnXosc                                               
00013d91  NOROM_RFCCpeIntGetAndClear                                           
00003d97  NOROM_RFCCpePatchReset                                               
00012f25  NOROM_RFCDoorbellSendTo                                              
00014055  NOROM_RFCHwIntGetAndClear                                            
00012b9d  NOROM_RFCOverrideSearch                                              
000144e5  NOROM_RFCOverrideUpdate                                              
00010895  NOROM_RFCSynthPowerDown                                              
0000cb49  NOROM_SetupStepVddrTrimTo                                            
0000bdc5  NOROM_SetupTrimDevice                                                
00011cdd  NOROM_SysCtrlIdle                                                    
0000821d  NOROM_SysCtrlStandby                                                 
0000cbd5  NPIFrame_frameMsg                                                    
000132cd  NPIRxBuf_GetRxBufCount                                               
00011d11  NPIRxBuf_ReadFromRxBuf                                               
0000be61  NPITLUART_initializeTransport                                        
000141d1  NPITL_checkNpiBusy                                                   
000132ed  NPITL_getRxBufLen                                                    
0001234d  NPITL_readTL                                                         
0000c7e9  NPITL_writeTL                                                        
000144e9  NPITask_Fxn                                                          
0000ff7d  NPITask_createTask                                                   
0000e515  NPITask_task                                                         
00014413  NVSCC26XX_close                                                      
0001445b  NVSCC26XX_control                                                    
000123ad  NVSCC26XX_erase                                                      
000152bc  NVSCC26XX_fxnTable                                                   
00013729  NVSCC26XX_getAttrs                                                   
0000fb41  NVSCC26XX_init                                                       
00013745  NVSCC26XX_lock                                                       
0000d55d  NVSCC26XX_open                                                       
00010d05  NVSCC26XX_read                                                       
000141e9  NVSCC26XX_unlock                                                     
00006d51  NVSCC26XX_write                                                      
00013f71  NVSSPI25X_assertSpiCs                                                
0000d7dd  NVSSPI25X_close                                                      
000126cd  NVSSPI25X_control                                                    
00013f83  NVSSPI25X_deassertSpiCs                                              
0000734b  NVSSPI25X_deinitSpiCs                                                
000123dd  NVSSPI25X_erase                                                      
000152e4  NVSSPI25X_fxnTable                                                   
00013f95  NVSSPI25X_getAttrs                                                   
00011d79  NVSSPI25X_init                                                       
00013761  NVSSPI25X_initSpiCs                                                  
0001377d  NVSSPI25X_lock                                                       
00008d71  NVSSPI25X_open                                                       
00010925  NVSSPI25X_read                                                       
000141f5  NVSSPI25X_unlock                                                     
0000602d  NVSSPI25X_write                                                      
00015420  NVS_config                                                           
00015542  NVS_count                                                            
0001563c  NVS_defaultParams                                                    
00014375  NVS_erase                                                            
0001437f  NVS_getAttrs                                                         
000126f9  NVS_init                                                             
0001096d  NVS_open                                                             
00014389  NVS_read                                                             
00014173  NVS_write                                                            
2000319c  OSAL_timeSeconds                                                     
00011499  PINCC26XX_getConfig                                                  
00014065  PINCC26XX_getPinCount                                                
000155d4  PINCC26XX_hwAttrs                                                    
00012725  PINCC26XX_setMux                                                     
0000e225  PIN_add                                                              
000135ad  PIN_close                                                            
00013a59  PIN_getConfig                                                        
0000473d  PIN_init                                                             
0000c62d  PIN_open                                                             
00014201  PIN_registerIntCb                                                    
0000f241  PIN_remove                                                           
00011dad  PIN_setConfig                                                        
00011901  PIN_setInterrupt                                                     
000109b5  PIN_setOutputEnable                                                  
000114d5  PIN_setOutputValue                                                   
00015543  PWM_count                                                            
0000df75  PowerCC26X2_auxISR                                                   
00013da5  PowerCC26X2_calibrate                                                
00015548  PowerCC26X2_config                                                   
0000f62d  PowerCC26X2_initiateCalibration                                      
20002a4c  PowerCC26X2_module                                                   
000139a9  PowerCC26XX_calibrate                                                
0000c16d  PowerCC26XX_getXoscStartupTime                                       
000110ed  PowerCC26XX_isStableXOSC_HF                                          
00012bed  PowerCC26XX_schedulerDisable                                         
00012c15  PowerCC26XX_schedulerRestore                                         
0000af4d  PowerCC26XX_standbyPolicy                                            
20004798  PowerCC26XX_swiKey                                                   
0001112d  PowerCC26XX_switchXOSC_HF                                            
2000479c  PowerCC26XX_taskKey                                                  
0001420d  Power_getConstraintMask                                              
00014219  Power_getDependencyCount                                             
000135cb  Power_getTransitionLatency                                           
00014225  Power_getTransitionState                                             
00013a71  Power_idleFunc                                                       
000070ed  Power_init                                                           
00012c3d  Power_registerNotify                                                 
00011de1  Power_releaseConstraint                                              
0000a4d9  Power_releaseDependency                                              
0001240d  Power_setConstraint                                                  
0000a669  Power_setDependency                                                  
00004c51  Power_sleep                                                          
0001330d  Power_unregisterNotify                                               
00015584  RFCC26XX_hwAttrs                                                     
00013db9  RF_Params_init                                                       
00013dcd  RF_RatConfigCompare_init                                             
00014181  RF_ScheduleCmdParams_init                                            
0000f685  RF_TxPowerTable_findValue                                            
00013c99  RF_cancelCmd                                                         
000076d1  RF_close                                                             
20002c00  RF_cmdIEEECsma                                                       
20002c20  RF_cmdIEEERx                                                         
20002be8  RF_cmdIEEETx                                                         
20002bc0  RF_cmdNop                                                            
20002bd0  RF_cmdRadioSetup                                                     
0000a5a1  RF_control                                                           
00013df5  RF_flushCmd                                                          
00013fa7  RF_getCmdOp                                                          
0000e57d  RF_getCurrentTime                                                    
0000734d  RF_getInfo                                                           
000137ed  RF_getRssi                                                           
0000b57d  RF_getTxPower                                                        
20003014  RF_handle                                                            
00008771  RF_open                                                              
20003020  RF_params                                                            
00009051  RF_pendCmd                                                           
0000ba05  RF_postCmd                                                           
00014231  RF_powerConstraintGet                                                
00011eb1  RF_powerConstraintRelease                                            
00013809  RF_powerConstraintSet                                                
00013e09  RF_ratCompare                                                        
0000e5e5  RF_ratDisableChannel                                                 
00014467  RF_runDirectCmd                                                      
0001446d  RF_runImmediateCmd                                                   
00005771  RF_scheduleCmd                                                       
0000a72d  RF_setTxPower                                                        
0000d5dd  RF_yield                                                             
00014b24  ROM_constStruct                                                      
00015238  ROM_externFuncPtrs                                                   
20002944  ROM_stateStruct                                                      
0000f78d  ResetISR                                                             
00013fb9  RingBuf_construct                                                    
0001116d  RingBuf_get                                                          
00010bad  RingBuf_put                                                          
00015544  SD_count                                                             
0001553d  SHA2_count                                                           
UNDEFED   SHT$$INIT_ARRAY$$Base                                                
UNDEFED   SHT$$INIT_ARRAY$$Limit                                               
0000fe89  SPICC26XXDMA_close                                                   
0000cc61  SPICC26XXDMA_control                                                 
00015438  SPICC26XXDMA_fxnTable                                                
0001418f  SPICC26XXDMA_init                                                    
00007ecd  SPICC26XXDMA_open                                                    
00003fb9  SPICC26XXDMA_transfer                                                
00009141  SPICC26XXDMA_transferCancel                                          
00013e45  SPI_Params_init                                                      
00014393  SPI_close                                                            
00015450  SPI_config                                                           
00015545  SPI_count                                                            
000153c4  SPI_defaultParams                                                    
00010dd1  SPI_init                                                             
00011589  SPI_open                                                             
0001439d  SPI_transfer                                                         
000127a9  SemaphoreP_constructBinary                                           
000127d5  SemaphoreP_createBinary                                              
00014249  SemaphoreP_delete                                                    
000144ed  SemaphoreP_destruct                                                  
00013fcb  SemaphoreP_pend                                                      
000144f1  SemaphoreP_post                                                      
000140a5  SwiP_Params_init                                                     
000115c5  SwiP_construct                                                       
000144f5  SwiP_destruct                                                        
000144f9  SwiP_disable                                                         
000144fd  SwiP_getTrigger                                                      
00014501  SwiP_or                                                              
00014505  SwiP_post                                                            
1003a83d  SwiP_restore                                                         
00014509  SwiP_setPriority                                                     
00057b69  Timer_construct                                                      
00057bb9  Timer_isActive                                                       
00057bd1  Timer_start                                                          
00057bd5  Timer_stop                                                           
0000cced  UARTCC26XX_close                                                     
0000e989  UARTCC26XX_control                                                   
0001530c  UARTCC26XX_fxnTable                                                  
000065ad  UARTCC26XX_hwiIntFxn                                                 
00013a89  UARTCC26XX_init                                                      
000062f5  UARTCC26XX_open                                                      
00007c91  UARTCC26XX_read                                                      
0000e291  UARTCC26XX_readCancel                                                
00014473  UARTCC26XX_readPolling                                               
0000befd  UARTCC26XX_swiIntFxn                                                 
00008a75  UARTCC26XX_write                                                     
0000cd79  UARTCC26XX_writeCancel                                               
00014479  UARTCC26XX_writePolling                                              
00013aa1  UART_Params_init                                                     
00015468  UART_config                                                          
000143a7  UART_control                                                         
00015546  UART_count                                                           
00015334  UART_defaultParams                                                   
00010e15  UART_init                                                            
00011601  UART_open                                                            
000143b1  UART_read                                                            
000143bb  UART_write                                                           
00011bd5  UDMACC26XX_close                                                     
000155dc  UDMACC26XX_config                                                    
000143c5  UDMACC26XX_hwiIntFxn                                                 
00010511  UDMACC26XX_open                                                      
00057b5f  Util_breakUint32                                                     
00057b47  Util_bufferUint16                                                    
00057af7  Util_bufferUint32                                                    
00057b53  Util_parseUint16                                                     
00057b31  Util_parseUint32                                                     
00015547  Watchdog_count                                                       
00000000  __ASM__                                                              
00000089  __ISA__                                                              
0000009c  __PLAT__                                                             
20014000  __STACK_END                                                          
00000500  __STACK_SIZE                                                         
20014000  __STACK_TOP                                                          
000000c3  __TARG__                                                             
00016250  __TI_CINIT_Base                                                      
00016298  __TI_CINIT_Limit                                                     
00016204  __TI_Handler_Table_Base                                              
00016210  __TI_Handler_Table_Limit                                             
0000baa5  __TI_auto_init                                                       
0000e6b5  __TI_decompress_lzss                                                 
0001419d  __TI_decompress_none                                                 
ffffffff  __TI_pprof_out_hndl                                                  
ffffffff  __TI_prof_data_size                                                  
ffffffff  __TI_prof_data_start                                                 
00015ef0  __TI_static_base__                                                   
00014279  __TI_zero_init                                                       
000000e9  __TRDR__                                                             
0000e223  __aeabi_idiv0                                                        
0000e223  __aeabi_ldiv0                                                        
0000e1b5  __aeabi_ldivmod                                                      
00013bf1  __aeabi_lmul                                                         
0000dac5  __aeabi_memclr                                                       
0000dac5  __aeabi_memclr4                                                      
0000dac5  __aeabi_memclr8                                                      
0000c035  __aeabi_memcpy                                                       
0000c035  __aeabi_memcpy4                                                      
0000c035  __aeabi_memcpy8                                                      
0000dac7  __aeabi_memset                                                       
0000dac7  __aeabi_memset4                                                      
0000dac7  __aeabi_memset8                                                      
000112ad  __aeabi_uidiv                                                        
000112ad  __aeabi_uidivmod                                                     
0000c595  __aeabi_uldivmod                                                     
ffffffff  __binit__                                                            
ffffffff  __c_args__                                                           
00057fa8  __ccfg                                                               
20013b00  __stack                                                              
00013ab9  _args_main                                                           
0000f78d  _c_int00                                                             
200031a8  _lock                                                                
0000a4d7  _nop                                                                 
00014255  _register_lock                                                       
00014261  _register_unlock                                                     
200031ac  _unlock                                                              
000155e4  aesccmCC26XXHWAttrs                                                  
20004378  aesccmCC26XXObjects                                                  
20003254  bInSwi                                                               
ffffffff  binit                                                                
000139dd  copyApiMacAddrToMacAddr                                              
0001055d  copy_in                                                              
000133ad  crc_update                                                           
20001923  csmPhy                                                               
200047a9  driverlib_release_0_51995                                            
20001d94  enhancedAckBuf                                                       
20001ca0  fhObject                                                             
20002c5e  fsCmdHandle                                                          
20003150  gpioCallbackFunctions                                                
2000303c  gpioPinConfigs                                                       
20013b00  heapEnd                                                              
200047b0  heapStart                                                            
000561e9  icall_directAPI                                                      
00010771  icall_slimMsgParser                                                  
00015590  inPinTypes                                                           
20002c60  lastPostCmd                                                          
200031b8  lastRatChanA                                                         
200031b9  lastRatChanB                                                         
00015eec  loDivider_ieee                                                       
200030a0  macAckDbg                                                            
20003070  macAckTimer                                                          
20001a8c  macActionSet                                                         
000094f9  macAllocTxBuffer                                                     
00008669  macApiAssociateReq                                                   
0000b001  macApiAssociateRsp                                                   
0001447f  macApiBadState                                                       
0000b0b5  macApiBeaconStartReq                                                 
00001579  macApiDataReq                                                        
0000a8b1  macApiDisassociateReq                                                
0000e9ed  macApiOrphanRsp                                                      
00012c8d  macApiPending                                                        
0000fbe9  macApiPollReq                                                        
0000ce91  macApiPurgeReq                                                       
0000cb47  macApiPwrOnReq                                                       
00005125  macApiScanReq                                                        
0000d8d5  macApiStartReq                                                       
00008c75  macApiSyncReq                                                        
00010e59  macAssocDataReq                                                      
0001024d  macAssocDataReqComplete                                              
0000ea51  macAssocDataRxInd                                                    
00011939  macAssocFailed                                                       
00013021  macAssocFrameResponseTimeout                                         
000140b5  macAssocRxDisassoc                                                   
00011fe9  macAssociateCnf                                                      
00014858  macAssociatingSt                                                     
00014744  macAuthTagLen                                                        
00007479  macAutoPendAddSrcMatchTableEntry                                     
0000ac69  macAutoPendMaintainSrcMatchTable                                     
00006e89  macAutoPoll                                                          
20001a6c  macBeacon                                                            
00014485  macBeaconBattLifeCallback                                            
00012cb5  macBeaconCheckSched                                                  
00009b19  macBeaconCheckTxTime                                                 
20001bd0  macBeaconCoord                                                       
20001964  macBeaconCoordAction1                                                
000133cd  macBeaconCoordReset                                                  
20001b30  macBeaconDevice                                                      
20001980  macBeaconDeviceAction                                                
0001282d  macBeaconInit                                                        
20001a4c  macBeaconMargin                                                      
20001b64  macBeaconPayload                                                     
0000eee5  macBeaconPeriodCallback                                              
0001029d  macBeaconPrepareCallback                                             
00011679  macBeaconRequeue                                                     
00013045  macBeaconReset                                                       
000133ed  macBeaconSetPrepareTime                                              
000097a9  macBeaconSetSched                                                    
0000e145  macBeaconSetupCap                                                    
00008b75  macBeaconStartContinue                                               
00010a8d  macBeaconStartFrameResponseTimer                                     
00011971  macBeaconStopTrack                                                   
0000b625  macBeaconSyncLoss                                                    
0000fce5  macBeaconTxCallback                                                  
0001448b  macBroadcastPendCallback                                             
000041d1  macBuildBeacon                                                       
0000a971  macBuildBeaconNotifyInd                                              
0000d145  macBuildCommonReq                                                    
00001cb9  macBuildHeader                                                       
0000c205  macBuildRealign                                                      
00014761  macCbackEventTbl                                                     
0000c6c1  macCbackForEvent                                                     
0000e2fd  macCcmDecrypt                                                        
0000e71d  macCcmEncrypt                                                        
0000c755  macCcmStarInverseTransform                                           
0000b379  macCcmStarTransform                                                  
20003160  macCfg                                                               
000111ad  macCheckPhyRate                                                      
000140c5  macCheckSched                                                        
0001476d  macCmdBufSize                                                        
0001474c  macCmdLen                                                            
00009bf1  macCommStatusInd                                                     
00013841  macConflictSyncLossInd                                               
20001ad8  macCoord                                                             
2000196c  macCoordAction1                                                      
20001a14  macCoordAction2                                                      
20001990  macCoordAction3                                                      
00012cdd  macCoordAddrCmp                                                      
0000addd  macCoordReset                                                        
00015e98  macCryptoDriverTable                                                 
20001960  macCryptoDrvTblPtr                                                   
2000309c  macCsmaRtcTimerId                                                    
200019a0  macData                                                              
20001944  macDataBeaconRequeue                                                 
2000193c  macDataCheckSched                                                    
20001940  macDataCheckTxTime                                                   
2000192c  macDataRequeueIndirect                                               
20001930  macDataRxBeaconCritical                                              
0001201d  macDataRxInd                                                         
0001340d  macDataRxMemAlloc                                                    
00014285  macDataRxMemFree                                                     
0001342d  macDataSend                                                          
20001938  macDataSetSched                                                      
20001934  macDataTxBeaconComplete                                              
0000c909  macDataTxComplete                                                    
200019b0  macDataTxDelay                                                       
0001450d  macDataTxDelayCallback                                               
0000a1a9  macDataTxEnqueue                                                     
20001928  macDataTxIndirect                                                    
00008105  macDataTxSend                                                        
00010e9d  macDestSAddrCmp                                                      
20001b04  macDevice                                                            
20001b98  macDeviceAction1                                                     
200019c0  macDeviceAction2                                                     
00009321  macDeviceReset                                                       
0000e369  macDisassocComplete                                                  
0000ef45  macExecute                                                           
000131a9  macFrameDuration                                                     
000131a9  macFrameDurationIeee                                                 
20002c90  macFrmFilter                                                         
200031bc  macFsCmdActive                                                       
00012d05  macGetCoordAddress                                                   
00013ae9  macGetMyAddrMode                                                     
0001344d  macGetRadioState                                                     
000119a9  macGetRadioTxPowerReg                                                
00014425  macIEEEGetPhyDesc                                                    
00014798  macIEEEPhyTable                                                      
00015028  macIdleSt                                                            
00003b75  macIncomingFrameSecurityMaterialRetrieval                            
00009e6d  macIndirectExpire                                                    
0000c29d  macIndirectMark                                                      
000102ed  macIndirectRequeueFrame                                              
0000bbe5  macIndirectSend                                                      
0000efa5  macIndirectTxFrame                                                   
00014291  macIsCsmOperational                                                  
0000de89  macKeyDescriptorLookup                                               
00014740  macKeySourceLen                                                      
000139f7  macLowLevelDiags                                                     
0000f469  macLowLevelReset                                                     
20001974  macMain                                                              
00013e81  macMainReserve                                                       
00013e95  macMcuInit                                                           
00013ea9  macMcuOverflowCapture                                                
0000f005  macMcuOverflowSetCompare                                             
0000eab5  macMcuOverflowSetPeriod                                              
000143cf  macMcuRandomByte                                                     
0001385d  macMcuTimerCapture                                                   
20001921  macMgmt                                                              
20001ab0  macMgmtAction1                                                       
200019e8  macMgmtAction2                                                       
0000db3f  macNoAction                                                          
0000a275  macOutgoingFrameKeyDescRetrieval                                     
00014511  macPanConflictComplete                                               
20001922  macPanCoordinator                                                    
20003193  macPhyChannel                                                        
20003018  macPhyTxPower                                                        
20001d0c  macPib                                                               
000149a4  macPibDefaults                                                       
00013607  macPibIndex                                                          
00012859  macPibReset                                                          
00014a2c  macPibTbl                                                            
00013b01  macPollCnf                                                           
00010ee1  macPollDataReqComplete                                               
0000f40d  macPollDataRxInd                                                     
000111ed  macPollFrameResponseTimeout                                          
00013b19  macPollRxAssocRsp                                                    
00013879  macPollRxDisassoc                                                    
000148c6  macPollingSt                                                         
200030f8  macPrevPeriodRatCount                                                
200047aa  macPwr                                                               
00002f69  macPwrVote                                                           
2000306a  macRadioAckIeeeFrame                                                 
00014515  macRadioComputeLQI                                                   
00007fe9  macRadioCsmaTxCb                                                     
00008559  macRadioInit                                                         
00008559  macRadioInitIeee                                                     
000143cf  macRadioRandomByte                                                   
00010ad5  macRadioSetChannel                                                   
00012885  macRadioSetIEEEAddr                                                  
000119e1  macRadioSetPanCoordinator                                            
00013895  macRadioSetPanID                                                     
0001346d  macRadioSetShortAddr                                                 
00013fdd  macRadioSetTxPower                                                   
000128b1  macRadioStopScan                                                     
0001348d  macRadioSwInit                                                       
0001429d  macRadioTxCancelAckTimeout                                           
000142a9  macRadioTxCancelTxAck                                                
000075a5  macRadioTxGo                                                         
0000f065  macRadioTxPrepCsmaSlottedIeee                                        
0000f0c5  macRadioTxPrepCsmaUnslotted                                          
0000f0c5  macRadioTxPrepCsmaUnslottedIeee                                      
0000f895  macRadioUpdateChannel                                                
0000e7ed  macRadioUpdateTxPower                                                
0001122d  macRadioWakeupCb                                                     
20003255  macRadioYielded                                                      
0000ae95  macRatCb_A                                                           
00009231  macRatCb_B                                                           
20001a30  macReset                                                             
20002c74  macRfDrvTblPtr                                                       
000138b1  macRxAckTxDoneCallback                                               
200047ab  macRxActive                                                          
0000d2d5  macRxAssocRsp                                                        
00010b1d  macRxAssociateReq                                                    
0000c335  macRxBeacon                                                          
000058fd  macRxBeaconCritical                                                  
000134ad  macRxBeaconReq                                                       
200031ba  macRxCmdActive                                                       
0000eb19  macRxCoordRealign                                                    
20004544  macRxDataEntryOffset                                                 
20004554  macRxDataEntryQueue                                                  
0000d65d  macRxDataReq                                                         
000116b5  macRxDisable                                                         
0000eb7d  macRxDisassoc                                                        
000140d5  macRxEnable                                                          
200047ac  macRxEnableFlags                                                     
20004538  macRxFilter                                                          
0000f125  macRxHaltCleanup                                                     
00012d2d  macRxHardDisable                                                     
000134cd  macRxOff                                                             
0001038d  macRxOffRequest                                                      
0000e855  macRxOn                                                              
00013b31  macRxOnRequest                                                       
0001246d  macRxOrphan                                                          
200047ad  macRxOutgoingAckFlag                                                 
20002c80  macRxOutputIeee                                                      
00013ebd  macRxPanConflict                                                     
00013069  macRxSoftDisable                                                     
000134ed  macRxSoftEnable                                                      
20001c4c  macScan                                                              
200019fc  macScanAction                                                        
00012257  macScanCnfInit                                                       
0000f185  macScanComplete                                                      
00013625  macScanFailedInProgress                                              
0000940d  macScanNextChan                                                      
0000a341  macScanRxBeacon                                                      
0000c3cd  macScanRxCoordRealign                                                
0000dd21  macScanStartTimer                                                    
00015096  macScanningSt                                                        
00014491  macSecCpy                                                            
20001c0c  macSecurityPib                                                       
00013fef  macSecurityPibIndex                                                  
00014800  macSecurityPibTbl                                                    
0000bc85  macSendDataMsg                                                       
0001352d  macSendFsCmd                                                         
0000e3d5  macSendMsg                                                           
000147a8  macSendMsgBufSize                                                    
00014755  macSendMsgDataSize                                                   
000048fd  macSendReceiveCmdIeee                                                
00008e69  macSetDefaultsByPhyID                                                
000140f5  macSetEvent                                                          
000140e5  macSetEvent16                                                        
000143d9  macSetSched                                                          
00012051  macSetUserConfig                                                     
000142b5  macSetupFsCmd                                                        
00009889  macSetupRATChanCompare                                               
0000c465  macSetupReceiveCmd                                                   
20002c64  macSfdDetectCback                                                    
200030f4  macSpecUsecsPerSymbol                                                
20002cbc  macSrcExtAddrList                                                    
20003230  macSrcMatchIsAckAllPending                                           
20003194  macSrcMatchIsEnabled                                                 
20003231  macSrcResIndex                                                       
20002ca0  macSrcShortAddrList                                                  
000043a9  macStackEventLoop                                                    
00012085  macStartBeaconPrepareCallback                                        
0000b8bd  macStartBegin                                                        
000120b9  macStartBroadcastPendTimer                                           
00012d55  macStartComplete                                                     
000116f1  macStartContinue                                                     
0001172d  macStartFrameResponseTimer                                           
00013b49  macStartResponseTimer                                                
0000b425  macStartSetParams                                                    
00014934  macStartingSt                                                        
00013b61  macStateIdleOrPolling                                                
00013ee5  macStateScanning                                                     
200019d4  macStateTbl                                                          
000120ed  macStopCmd                                                           
00011a19  macSymbolTimerCount                                                  
200047ae  macSymbolTimerImpending                                              
0000f469  macSymbolTimerInit                                                   
00011769  macSymbolTimerRealignIeee                                            
0000f469  macSymbolTimerReset                                                  
00013b79  macSymbolTimerRestore                                                
200030fc  macSymbolTimerRollover                                               
00011a51  macSymbolTimerSetRollover                                            
00012121  macSymbolTimerSetTrigger                                             
00013905  macSymbolTimerSetTriggerRollover                                     
20003100  macSymbolTimerTrigger                                                
0000fd39  macSyncTimeoutCallback                                               
20001920  macTaskId                                                            
200047a0  macTasksEvents                                                       
0001354d  macTimer                                                             
20001958  macTimerActive                                                       
0000f8ed  macTimerAddTimer                                                     
0001308d  macTimerAligned                                                      
0000d6dd  macTimerCancel                                                       
00011a19  macTimerGetTime                                                      
00013b91  macTimerInit                                                         
20001954  macTimerNewRollover                                                  
00012d7d  macTimerRecalcUnaligned                                              
00013643  macTimerRemoveTimer                                                  
20001950  macTimerRollover                                                     
000147c0  macTimerRolloverValue                                                
0001249d  macTimerSetRollover                                                  
0000f945  macTimerUpdateSymbolTimer                                            
0000f4c5  macTrackPeriodCallback                                               
000103dd  macTrackStartCallback                                                
0000dd99  macTrackTimeoutCallback                                              
000138b1  macTxAckIsr                                                          
0001068d  macTxAckNotReceivedCallback                                          
200047af  macTxActive                                                          
20003092  macTxBe                                                              
00006851  macTxBeaconCompleteCallback                                          
200031bb  macTxCmdActive                                                       
00005be9  macTxCompleteCallback                                                
2000309a  macTxCsmaBackoffDelay                                                
00006995  macTxCsmaDelay                                                       
00012155  macTxDecrypt                                                         
0000d951  macTxDoneCallback                                                    
000052b9  macTxFrame                                                           
00014789  macTxFrameFailed                                                     
0001477b  macTxFrameSuccess                                                    
20003093  macTxGpInterframeDelay                                               
20003190  macTxSlottedDelay                                                    
20003090  macTxSlottedDelayFactor                                              
20002c6c  macTxTimestamp                                                       
00012da5  macTxTimestampCallback                                               
20003091  macTxType                                                            
00012189  macTxUpdateIE                                                        
20003191  macUnitBackoffPeriod                                                 
0000ebe1  macUpdatePanId                                                       
000106d9  macUpdatePayloadIEPtr                                                
20001e90  macUser0Cfg                                                          
00013ba9  macWrapper8ByteUnused                                                
0000194d  macWrapperAddDevice                                                  
00004f8d  macWrapperAddKeyInitFCtr                                             
00007921  macWrapperDeleteAllDevices                                           
00006701  macWrapperDeleteDevice                                               
00005d59  macWrapperDeleteKeyAndAssociatedDevices                              
0000b2c9  macWrapperGetDefaultSourceKey                                        
000117a5  mac_msg_deallocate                                                   
0000e441  main                                                                 
20003244  main_func_sp                                                         
000130b1  memcmp                                                               
0000c035  memcpy                                                               
0000dacd  memset                                                               
000154f0  msacbackSizeTable                                                    
20002fe8  mtProcessIncoming                                                    
20001ec0  myTask                                                               
20001f74  myTaskStack                                                          
20002294  npiAppEntityID                                                       
2000230c  npiTaskStack                                                         
200031bd  numRfCmd                                                             
200031be  numRxCmd                                                             
200031bf  numRxPostCmd                                                         
20003099  numTx                                                                
0001560c  nvsCC26xxHWAttrs                                                     
200047a4  nvsCC26xxObjects                                                     
00015358  nvsSPI25XHWAttrs                                                     
20004770  nvsSPI25XObjects                                                     
000576b1  osal_alien2proxy                                                     
20002ef5  osal_entity                                                          
20002f00  osal_eventloop_hook                                                  
20002f04  osal_icallMsg_hook                                                   
20002f0c  osal_last_timestamp                                                  
20002f14  osal_max_msecs                                                       
000578bd  osal_mem_alloc                                                       
000578e5  osal_mem_free                                                        
00057771  osal_memcmp                                                          
000577e9  osal_memcpy                                                          
00057821  osal_memset                                                          
0005770d  osal_msg_allocate                                                    
00057801  osal_msg_deallocate                                                  
00057611  osal_msg_dequeue                                                     
0005767d  osal_msg_enqueue                                                     
000575d5  osal_msg_extract                                                     
00057791  osal_msg_push                                                        
0005740d  osal_msg_receive                                                     
000574f9  osal_msg_send                                                        
00057905  osal_next_timeout                                                    
00057825  osal_pwrmgr_task_state                                               
20002efc  osal_qHead                                                           
00057815  osal_self                                                            
20002f08  osal_semaphore                                                       
00057369  osal_set_event                                                       
0005709d  osal_start_system                                                    
20002f10  osal_tickperiod                                                      
0001559c  outPinStrengths                                                      
00015568  outPinTypes                                                          
20003178  pMacCbackCheckPending                                                
20003174  pMacCbackQueryRetransmit                                             
20001924  pMacDataTx                                                           
20002c70  pMacRadioConfig                                                      
20002c7c  pMacRfAntSwitchSel                                                   
20003240  pOverridesTable_ieee                                                 
20002c78  pRfIeeeTable                                                         
20004290  pinHandleTable                                                       
200031b4  pinLowerBound                                                        
200031b0  pinUpperBound                                                        
20002d86  pwrmgr_attribute                                                     
20002d84  pwrmgr_initialized                                                   
00015104  resourceDB                                                           
00015de0  rfDriverTable                                                        
00015ed8  rfPatchTable_ieee                                                    
20002c5c  rxCmdHandle                                                          
20003192  rxFhRsl                                                              
20004539  rxPromiscuousMode                                                    
20004548  rxRadioBufferPtr                                                     
00057bd9  sAddrCmp                                                             
00057c21  sAddrCpy                                                             
00057c05  sAddrExtCmp                                                          
00057c35  sAddrExtCpy                                                          
0001527c  spiCC26XXDMAHWAttrs                                                  
20003d68  spiCC26XXDMAObjects                                                  
00056ae5  startup_entry                                                        
00015644  tasksArr                                                             
2000297c  ti_sysbios_BIOS_Module__state__V                                     
1003b0f5  ti_sysbios_BIOS_RtsGateProxy_Handle__label__S                        
1003b0f5  ti_sysbios_BIOS_RtsGateProxy_Handle__label__S__mangled__             
1003ae61  ti_sysbios_BIOS_RtsGateProxy_Object__delete__S                       
1003b705  ti_sysbios_BIOS_RtsGateProxy_Params__init__S                         
1003b705  ti_sysbios_BIOS_RtsGateProxy_Params__init__S__mangled__              
1003b7df  ti_sysbios_BIOS_RtsGateProxy_enter__E                                
1003b7e3  ti_sysbios_BIOS_RtsGateProxy_leave__E                                
1003b80b  ti_sysbios_BIOS_RtsGateProxy_query__E                                
1003b80b  ti_sysbios_BIOS_RtsGateProxy_query__E__mangled__                     
0001252d  ti_sysbios_BIOS_atExitFunc__I                                        
0001393d  ti_sysbios_BIOS_errorRaiseHook__I                                    
00013cc5  ti_sysbios_BIOS_exitFunc__I                                          
1003b611  ti_sysbios_BIOS_exit__E                                              
1003b5b1  ti_sysbios_BIOS_getCpuFreq__E                                        
000142f1  ti_sysbios_BIOS_getThreadType__E                                     
10039bff  ti_sysbios_BIOS_linkedWithIncorrectBootLibrary__E                    
0000e923  ti_sysbios_BIOS_nullFunc__I                                          
000130d5  ti_sysbios_BIOS_registerRTSLock__I                                   
000130f9  ti_sysbios_BIOS_removeRTSLock__I                                     
0001356d  ti_sysbios_BIOS_rtsLock__I                                           
00013c09  ti_sysbios_BIOS_rtsUnlock__I                                         
1003b5c5  ti_sysbios_BIOS_setThreadType__E                                     
0001255d  ti_sysbios_BIOS_startFunc__I                                         
1003b621  ti_sysbios_BIOS_start__E                                             
0000bdc5  ti_sysbios_family_arm_cc26xx_Boot_trimDevice                         
00014bde  ti_sysbios_family_arm_cc26xx_Timer_Module__id__C                     
1003adc1  ti_sysbios_family_arm_cc26xx_Timer_Module__startupDone__S            
20002a44  ti_sysbios_family_arm_cc26xx_Timer_Module__state__V                  
1003ac8d  ti_sysbios_family_arm_cc26xx_Timer_Module_startup__E                 
20002d88  ti_sysbios_family_arm_cc26xx_Timer_Object__table__V                  
0001358d  ti_sysbios_family_arm_cc26xx_Timer_dynamicStub__E                    
00015648  ti_sysbios_family_arm_cc26xx_Timer_funcHookCH1__C                    
0001564c  ti_sysbios_family_arm_cc26xx_Timer_funcHookCH2__C                    
00013f49  ti_sysbios_family_arm_cc26xx_Timer_getCount64__E                     
00011af9  ti_sysbios_family_arm_cc26xx_Timer_getCurrentTick__E                 
1003b7e7  ti_sysbios_family_arm_cc26xx_Timer_getExpiredTicks__E                
0001311d  ti_sysbios_family_arm_cc26xx_Timer_getMaxTicks__E                    
1003b7eb  ti_sysbios_family_arm_cc26xx_Timer_getPeriod__E                      
0001258d  ti_sysbios_family_arm_cc26xx_Timer_initDevice__I                     
10039415  ti_sysbios_family_arm_cc26xx_Timer_periodicStub__E                   
1003acb9  ti_sysbios_family_arm_cc26xx_Timer_postInit__I                       
00012289  ti_sysbios_family_arm_cc26xx_Timer_setNextTick__E                    
1003b7ef  ti_sysbios_family_arm_cc26xx_Timer_setPeriod__E                      
000112ed  ti_sysbios_family_arm_cc26xx_Timer_setThreshold__I                   
0000d75d  ti_sysbios_family_arm_cc26xx_Timer_start__E                          
00014c40  ti_sysbios_family_arm_cc26xx_Timer_startupNeeded__C                  
1003a9cd  ti_sysbios_family_arm_cc26xx_Timer_startup__E                        
20002970  ti_sysbios_family_arm_cc26xx_TimestampProvider_Module__state__V      
1003b065  ti_sysbios_family_arm_cc26xx_TimestampProvider_Module_startup__E     
000141ab  ti_sysbios_family_arm_cc26xx_TimestampProvider_get32__E              
1003ace5  ti_sysbios_family_arm_cc26xx_TimestampProvider_get64__E              
1003b6c9  ti_sysbios_family_arm_cc26xx_TimestampProvider_getFreq__E            
00014dc4  ti_sysbios_family_arm_cc26xx_TimestampProvider_useClockTimer__C      
00014d5c  ti_sysbios_family_arm_m3_Hwi_E_alreadyDefined__C                     
00014de4  ti_sysbios_family_arm_m3_Hwi_E_hwiLimitExceeded__C                   
10039c01  ti_sysbios_family_arm_m3_Hwi_Instance_finalize__E                    
100394b5  ti_sysbios_family_arm_m3_Hwi_Instance_init__E                        
20003256  ti_sysbios_family_arm_m3_Hwi_Module_State_0_excActive__A             
20003248  ti_sysbios_family_arm_m3_Hwi_Module_State_0_excContext__A            
2000324c  ti_sysbios_family_arm_m3_Hwi_Module_State_0_excStack__A              
00014bdc  ti_sysbios_family_arm_m3_Hwi_Module__id__C                           
200031c0  ti_sysbios_family_arm_m3_Hwi_Module__root__V                         
1003ade9  ti_sysbios_family_arm_m3_Hwi_Module__startupDone__S                  
20002a0c  ti_sysbios_family_arm_m3_Hwi_Module__state__V                        
1003a305  ti_sysbios_family_arm_m3_Hwi_Module_startup__E                       
00014c2c  ti_sysbios_family_arm_m3_Hwi_NUM_INTERRUPTS__C                       
00014df0  ti_sysbios_family_arm_m3_Hwi_Object__DESC__C                         
1003c278  ti_sysbios_family_arm_m3_Hwi_Object__PARAMS__C                       
00014e14  ti_sysbios_family_arm_m3_Hwi_Object__count__C                        
10039961  ti_sysbios_family_arm_m3_Hwi_Object__create__S                       
1003ae11  ti_sysbios_family_arm_m3_Hwi_Object__delete__S                       
1003b089  ti_sysbios_family_arm_m3_Hwi_Object__destruct__S                     
1003ae39  ti_sysbios_family_arm_m3_Hwi_Object__get__S                          
00014be4  ti_sysbios_family_arm_m3_Hwi_Object__table__C                        
2000310c  ti_sysbios_family_arm_m3_Hwi_Object__table__V                        
1003b6d5  ti_sysbios_family_arm_m3_Hwi_Params__init__S                         
00014e20  ti_sysbios_family_arm_m3_Hwi_ccr__C                                  
10039fad  ti_sysbios_family_arm_m3_Hwi_construct                               
000117e1  ti_sysbios_family_arm_m3_Hwi_construct2__E                           
10039d45  ti_sysbios_family_arm_m3_Hwi_create                                  
1003b7f3  ti_sysbios_family_arm_m3_Hwi_delete                                  
1003b7f7  ti_sysbios_family_arm_m3_Hwi_destruct                                
1003b6e1  ti_sysbios_family_arm_m3_Hwi_disableFxn__E                           
1003a679  ti_sysbios_family_arm_m3_Hwi_disableInterrupt__E                     
10039c6d  ti_sysbios_family_arm_m3_Hwi_dispatchC__I                            
200040f0  ti_sysbios_family_arm_m3_Hwi_dispatchTable                           
1003bf9d  ti_sysbios_family_arm_m3_Hwi_dispatch__I                             
1003b791  ti_sysbios_family_arm_m3_Hwi_doSwiRestore__I                         
1003b7a9  ti_sysbios_family_arm_m3_Hwi_doTaskRestore__I                        
1003b6ed  ti_sysbios_family_arm_m3_Hwi_enableFxn__E                            
1003a6bd  ti_sysbios_family_arm_m3_Hwi_enableInterrupt__E                      
1003c1a1  ti_sysbios_family_arm_m3_Hwi_excHandlerAsm__I                        
00014c98  ti_sysbios_family_arm_m3_Hwi_excHandlerFunc__C                       
1003ab6d  ti_sysbios_family_arm_m3_Hwi_excHandler__I                           
1003a701  ti_sysbios_family_arm_m3_Hwi_getStackInfo__E                         
100395e5  ti_sysbios_family_arm_m3_Hwi_initNVIC__E                             
1003c121  ti_sysbios_family_arm_m3_Hwi_initStacks__E                           
00014cf0  ti_sysbios_family_arm_m3_Hwi_nullIsrFunc__C                          
00014dbc  ti_sysbios_family_arm_m3_Hwi_numSparseInterrupts__C                  
e000e000  ti_sysbios_family_arm_m3_Hwi_nvic                                    
1003c179  ti_sysbios_family_arm_m3_Hwi_pendSV__I                               
1003b461  ti_sysbios_family_arm_m3_Hwi_plug__E                                 
100392ad  ti_sysbios_family_arm_m3_Hwi_postInit__I                             
00014105  ti_sysbios_family_arm_m3_Hwi_post__E                                 
00014d54  ti_sysbios_family_arm_m3_Hwi_priGroup__C                             
20000000  ti_sysbios_family_arm_m3_Hwi_ramVectors                              
00000000  ti_sysbios_family_arm_m3_Hwi_resetVectors                            
1003b7af  ti_sysbios_family_arm_m3_Hwi_restoreFxn__E                           
1003c19d  ti_sysbios_family_arm_m3_Hwi_return                                  
00014497  ti_sysbios_family_arm_m3_Hwi_setFunc__E                              
1003b47d  ti_sysbios_family_arm_m3_Hwi_setPriority__E                          
1003b799  ti_sysbios_family_arm_m3_Hwi_startup__E                              
00015650  ti_sysbios_family_arm_m3_Hwi_swiDisable__C                           
00015654  ti_sysbios_family_arm_m3_Hwi_swiRestoreHwi__C                        
1003b499  ti_sysbios_family_arm_m3_Hwi_switchFromBootStack__E                  
1003b7fb  ti_sysbios_family_arm_m3_TaskSupport_Module__startupDone__S          
1003c095  ti_sysbios_family_arm_m3_TaskSupport_buildTaskStack                  
1003b631  ti_sysbios_family_arm_m3_TaskSupport_getStackAlignment__E            
1003c1f7  ti_sysbios_family_arm_m3_TaskSupport_glue                            
00014c28  ti_sysbios_family_arm_m3_TaskSupport_stackAlignment__C               
1003a789  ti_sysbios_family_arm_m3_TaskSupport_start__E                        
1003c1df  ti_sysbios_family_arm_m3_TaskSupport_swap__E                         
1003c1c1  ti_sysbios_family_xxx_Hwi_switchAndRunFunc                           
1003b0ad  ti_sysbios_gates_GateHwi_Handle__label__S                            
10039d43  ti_sysbios_gates_GateHwi_Instance_init__E                            
00014d10  ti_sysbios_gates_GateHwi_Module__FXNS__C                             
00014c88  ti_sysbios_gates_GateHwi_Module__id__C                               
200031c8  ti_sysbios_gates_GateHwi_Module__root__V                             
00014d98  ti_sysbios_gates_GateHwi_Object__DESC__C                             
1003c368  ti_sysbios_gates_GateHwi_Object__PARAMS__C                           
1003ad11  ti_sysbios_gates_GateHwi_Object__create__S                           
1003b0d1  ti_sysbios_gates_GateHwi_Object__delete__S                           
1003b6f9  ti_sysbios_gates_GateHwi_enter__E                                    
1003b7b5  ti_sysbios_gates_GateHwi_leave__E                                    
1003b7ff  ti_sysbios_gates_GateHwi_query__E                                    
00013c21  ti_sysbios_gates_GateMutexPri_Handle__label__S                       
00015658  ti_sysbios_gates_GateMutexPri_Instance_State_pendQ__O                
00014115  ti_sysbios_gates_GateMutexPri_Instance_finalize__E                   
00013c39  ti_sysbios_gates_GateMutexPri_Instance_init__E                       
0001537c  ti_sysbios_gates_GateMutexPri_Module__FXNS__C                        
200031d0  ti_sysbios_gates_GateMutexPri_Module__root__V                        
000153e4  ti_sysbios_gates_GateMutexPri_Object__DESC__C                        
000154b0  ti_sysbios_gates_GateMutexPri_Object__PARAMS__C                      
000125bd  ti_sysbios_gates_GateMutexPri_Object__create__S                      
00013141  ti_sysbios_gates_GateMutexPri_Object__delete__S                      
000142fd  ti_sysbios_gates_GateMutexPri_Params__init__S                        
000125ed  ti_sysbios_gates_GateMutexPri_create                                 
0000cf1d  ti_sysbios_gates_GateMutexPri_enter__E                               
000122bb  ti_sysbios_gates_GateMutexPri_insertPri__I                           
0000e0d1  ti_sysbios_gates_GateMutexPri_leave__E                               
00014525  ti_sysbios_gates_GateMutexPri_query__E                               
1003b0f5  ti_sysbios_gates_GateMutex_Handle__label__S                          
00014b78  ti_sysbios_gates_GateMutex_Instance_State_sem__O                     
1003b7bb  ti_sysbios_gates_GateMutex_Instance_finalize__E                      
1003b56d  ti_sysbios_gates_GateMutex_Instance_init__E                          
00014bb4  ti_sysbios_gates_GateMutex_Module__FXNS__C                           
00014cf6  ti_sysbios_gates_GateMutex_Module__id__C                             
200031d8  ti_sysbios_gates_GateMutex_Module__root__V                           
00014b54  ti_sysbios_gates_GateMutex_Object__DESC__C                           
1003c380  ti_sysbios_gates_GateMutex_Object__PARAMS__C                         
1003aa01  ti_sysbios_gates_GateMutex_Object__create__S                         
1003ae61  ti_sysbios_gates_GateMutex_Object__delete__S                         
1003b119  ti_sysbios_gates_GateMutex_Object__destruct__S                       
20002e88  ti_sysbios_gates_GateMutex_Object__table__V                          
1003b705  ti_sysbios_gates_GateMutex_Params__init__S                           
1003ab9d  ti_sysbios_gates_GateMutex_construct                                 
1003aa35  ti_sysbios_gates_GateMutex_create                                    
1003b803  ti_sysbios_gates_GateMutex_delete                                    
1003b807  ti_sysbios_gates_GateMutex_destruct                                  
1003ae89  ti_sysbios_gates_GateMutex_enter__E                                  
1003b691  ti_sysbios_gates_GateMutex_leave__E                                  
1003b80b  ti_sysbios_gates_GateMutex_query__E                                  
1003ade9  ti_sysbios_hal_Hwi_HwiProxy_Module__startupDone__S                   
1003ade9  ti_sysbios_hal_Hwi_HwiProxy_Module__startupDone__S__mangled__        
1003b641  ti_sysbios_hal_Hwi_HwiProxy_Object__create__S                        
1003ae11  ti_sysbios_hal_Hwi_HwiProxy_Object__delete__S                        
1003b6d5  ti_sysbios_hal_Hwi_HwiProxy_Params__init__S                          
1003b6d5  ti_sysbios_hal_Hwi_HwiProxy_Params__init__S__mangled__               
1003b4b5  ti_sysbios_hal_Hwi_HwiProxy_create                                   
1003b80f  ti_sysbios_hal_Hwi_HwiProxy_delete                                   
1003a679  ti_sysbios_hal_Hwi_HwiProxy_disableInterrupt__E                      
1003a679  ti_sysbios_hal_Hwi_HwiProxy_disableInterrupt__E__mangled__           
1003a6bd  ti_sysbios_hal_Hwi_HwiProxy_enableInterrupt__E                       
1003a6bd  ti_sysbios_hal_Hwi_HwiProxy_enableInterrupt__E__mangled__            
1003a701  ti_sysbios_hal_Hwi_HwiProxy_getStackInfo__E                          
1003a701  ti_sysbios_hal_Hwi_HwiProxy_getStackInfo__E__mangled__               
00014105  ti_sysbios_hal_Hwi_HwiProxy_post__E                                  
1003b799  ti_sysbios_hal_Hwi_HwiProxy_startup__E                               
1003b799  ti_sysbios_hal_Hwi_HwiProxy_startup__E__mangled__                    
1003b499  ti_sysbios_hal_Hwi_HwiProxy_switchFromBootStack__E                   
1003b499  ti_sysbios_hal_Hwi_HwiProxy_switchFromBootStack__E__mangled__        
1003b77d  ti_sysbios_hal_Hwi_Instance_finalize__E                              
1003b019  ti_sysbios_hal_Hwi_Instance_init__E                                  
200031e0  ti_sysbios_hal_Hwi_Module__root__V                                   
1003b5ed  ti_sysbios_hal_Hwi_Module_startup__E                                 
00014d34  ti_sysbios_hal_Hwi_Object__DESC__C                                   
1003c2a8  ti_sysbios_hal_Hwi_Object__PARAMS__C                                 
1003aeb1  ti_sysbios_hal_Hwi_Object__delete__S                                 
00014309  ti_sysbios_hal_Hwi_Params__init__S                                   
10039dad  ti_sysbios_hal_Hwi_create                                            
1003b813  ti_sysbios_hal_Hwi_delete                                            
1003a679  ti_sysbios_hal_Hwi_disableInterrupt__E                               
1003a679  ti_sysbios_hal_Hwi_disableInterrupt__E                               
1003a6bd  ti_sysbios_hal_Hwi_enableInterrupt__E                                
1003a6bd  ti_sysbios_hal_Hwi_enableInterrupt__E                                
1003a701  ti_sysbios_hal_Hwi_getStackInfo__E                                   
1003a701  ti_sysbios_hal_Hwi_getStackInfo__E                                   
1003ad3d  ti_sysbios_hal_Hwi_initStack                                         
00014105  ti_sysbios_hal_Hwi_post__E                                           
1003b799  ti_sysbios_hal_Hwi_startup__E                                        
1003b799  ti_sysbios_hal_Hwi_startup__E                                        
1003b499  ti_sysbios_hal_Hwi_switchFromBootStack__E                            
1003b499  ti_sysbios_hal_Hwi_switchFromBootStack__E                            
00014e24  ti_sysbios_heaps_HeapMem_E_memory__C                                 
1003b13d  ti_sysbios_heaps_HeapMem_Handle__label__S                            
20003260  ti_sysbios_heaps_HeapMem_Instance_State_0_buf__A                     
1003a5a1  ti_sysbios_heaps_HeapMem_Instance_init__E                            
1003b0f5  ti_sysbios_heaps_HeapMem_Module_GateProxy_Handle__label__S           
1003b0f5  ti_sysbios_heaps_HeapMem_Module_GateProxy_Handle__label__S__mangled__
1003ae61  ti_sysbios_heaps_HeapMem_Module_GateProxy_Object__delete__S          
1003b705  ti_sysbios_heaps_HeapMem_Module_GateProxy_Params__init__S            
1003b705  ti_sysbios_heaps_HeapMem_Module_GateProxy_Params__init__S__mangled__ 
1003b817  ti_sysbios_heaps_HeapMem_Module_GateProxy_enter__E                   
1003b81b  ti_sysbios_heaps_HeapMem_Module_GateProxy_leave__E                   
1003b80b  ti_sysbios_heaps_HeapMem_Module_GateProxy_query__E                   
1003b80b  ti_sysbios_heaps_HeapMem_Module_GateProxy_query__E__mangled__        
00014c9c  ti_sysbios_heaps_HeapMem_Module__FXNS__C                             
00014c3c  ti_sysbios_heaps_HeapMem_Module__gateObj__C                          
00014c94  ti_sysbios_heaps_HeapMem_Module__id__C                               
200031e8  ti_sysbios_heaps_HeapMem_Module__root__V                             
00014e2c  ti_sysbios_heaps_HeapMem_Object__DESC__C                             
1003c2fc  ti_sysbios_heaps_HeapMem_Object__PARAMS__C                           
00014db8  ti_sysbios_heaps_HeapMem_Object__count__C                            
1003aa69  ti_sysbios_heaps_HeapMem_Object__create__S                           
1003b161  ti_sysbios_heaps_HeapMem_Object__delete__S                           
1003aed9  ti_sysbios_heaps_HeapMem_Object__get__S                              
00014c10  ti_sysbios_heaps_HeapMem_Object__table__C                            
20003124  ti_sysbios_heaps_HeapMem_Object__table__V                            
10039b91  ti_sysbios_heaps_HeapMem_allocUnprotected__E                         
1003a24d  ti_sysbios_heaps_HeapMem_alloc__E                                    
1003a35d  ti_sysbios_heaps_HeapMem_freeUnprotected__E                          
1003a8b5  ti_sysbios_heaps_HeapMem_free__E                                     
1003a509  ti_sysbios_heaps_HeapMem_getStats__E                                 
1003aa9d  ti_sysbios_heaps_HeapMem_init__I                                     
1003b7c1  ti_sysbios_heaps_HeapMem_isBlocking__E                               
00014d70  ti_sysbios_heaps_HeapMem_reqAlign__C                                 
1003b69f  ti_sysbios_heaps_HeapMem_restore__E                                  
1003b583  ti_sysbios_knl_Clock_Instance_finalize__E                            
1003aad1  ti_sysbios_knl_Clock_Instance_init__E                                
00014dd8  ti_sysbios_knl_Clock_Module_State_clockQ__O                          
200031f0  ti_sysbios_knl_Clock_Module__root__V                                 
20002944  ti_sysbios_knl_Clock_Module__state__V                                
1003b185  ti_sysbios_knl_Clock_Module_startup__E                               
00014b8c  ti_sysbios_knl_Clock_Object__DESC__C                                 
1003c320  ti_sysbios_knl_Clock_Object__PARAMS__C                               
1003af01  ti_sysbios_knl_Clock_Object__delete__S                               
1003b1a9  ti_sysbios_knl_Clock_Object__destruct__S                             
200030b4  ti_sysbios_knl_Clock_Object__table__V                                
1003b711  ti_sysbios_knl_Clock_Params__init__S                                 
1003adc1  ti_sysbios_knl_Clock_TimerProxy_Module__startupDone__S               
1003adc1  ti_sysbios_knl_Clock_TimerProxy_Module__startupDone__S__mangled__    
1003b651  ti_sysbios_knl_Clock_TimerProxy_getCurrentTick__E                    
1003b81f  ti_sysbios_knl_Clock_TimerProxy_getExpiredTicks__E                   
1003b661  ti_sysbios_knl_Clock_TimerProxy_getMaxTicks__E                       
1003b823  ti_sysbios_knl_Clock_TimerProxy_getPeriod__E                         
1003b671  ti_sysbios_knl_Clock_TimerProxy_setNextTick__E                       
1003a9cd  ti_sysbios_knl_Clock_TimerProxy_startup__E                           
1003a9cd  ti_sysbios_knl_Clock_TimerProxy_startup__E__mangled__                
1003b1cd  ti_sysbios_knl_Clock_addI__E                                         
1003a8ed  ti_sysbios_knl_Clock_construct                                       
1003a7c5  ti_sysbios_knl_Clock_create                                          
1003b827  ti_sysbios_knl_Clock_delete                                          
1003b82b  ti_sysbios_knl_Clock_destruct                                        
00013f5d  ti_sysbios_knl_Clock_doTick__I                                       
00012935  ti_sysbios_knl_Clock_getTicksUntilInterrupt__E                       
1003a925  ti_sysbios_knl_Clock_getTicks__E                                     
00012a0b  ti_sysbios_knl_Clock_getTimeout__E                                   
1003b71d  ti_sysbios_knl_Clock_getTimerHandle__E                               
00014529  ti_sysbios_knl_Clock_isActive__E                                     
1003a463  ti_sysbios_knl_Clock_logTick__E                                      
1003b82f  ti_sysbios_knl_Clock_removeI__E                                      
1003b3a1  ti_sysbios_knl_Clock_scheduleNextTick__E                             
1003b833  ti_sysbios_knl_Clock_setTimeout__E                                   
10039675  ti_sysbios_knl_Clock_startI__E                                       
1003b599  ti_sysbios_knl_Clock_start__E                                        
1003af29  ti_sysbios_knl_Clock_stop__E                                         
00014cf4  ti_sysbios_knl_Clock_tickMode__C                                     
0001565c  ti_sysbios_knl_Clock_tickPeriod__C                                   
00014c30  ti_sysbios_knl_Clock_triggerClock__C                                 
1003a8b3  ti_sysbios_knl_Clock_triggerFunc__I                                  
10039879  ti_sysbios_knl_Clock_walkQueueDynamic__E                             
0000c4fd  ti_sysbios_knl_Clock_workFuncDynamic__E                              
10039801  ti_sysbios_knl_Clock_workFunc__E                                     
00014dc8  ti_sysbios_knl_Event_Instance_State_pendQ__O                         
1003b787  ti_sysbios_knl_Event_Instance_init__E                                
200031f8  ti_sysbios_knl_Event_Module__root__V                                 
00014b34  ti_sysbios_knl_Event_Object__DESC__C                                 
1003c398  ti_sysbios_knl_Event_Object__PARAMS__C                               
1003b1f1  ti_sysbios_knl_Event_Object__delete__S                               
1003b3c1  ti_sysbios_knl_Event_Object__destruct__S                             
1003b729  ti_sysbios_knl_Event_Params__init__S                                 
1003b3e1  ti_sysbios_knl_Event_checkEvents__I                                  
1003abcd  ti_sysbios_knl_Event_construct                                       
1003ab05  ti_sysbios_knl_Event_create                                          
1003b837  ti_sysbios_knl_Event_delete                                          
1003b83b  ti_sysbios_knl_Event_destruct                                        
1003ad69  ti_sysbios_knl_Event_pendTimeout__I                                  
100390f9  ti_sysbios_knl_Event_pend__E                                         
10039e15  ti_sysbios_knl_Event_post__E                                         
1003b5ff  ti_sysbios_knl_Event_sync__E                                         
00015660  ti_sysbios_knl_Idle_funcList__A                                      
00014b80  ti_sysbios_knl_Idle_funcList__C                                      
1003b7a1  ti_sysbios_knl_Idle_loop__E                                          
1003b215  ti_sysbios_knl_Idle_run__E                                           
00014bac  ti_sysbios_knl_Mailbox_Instance_State_dataQue__O                     
00014d0c  ti_sysbios_knl_Mailbox_Instance_State_dataSem__O                     
00014e54  ti_sysbios_knl_Mailbox_Instance_State_freeQue__O                     
00014d60  ti_sysbios_knl_Mailbox_Instance_State_freeSem__O                     
1003a2a9  ti_sysbios_knl_Mailbox_Instance_finalize__E                          
10039365  ti_sysbios_knl_Mailbox_Instance_init__E                              
20003200  ti_sysbios_knl_Mailbox_Module__root__V                               
1003a745  ti_sysbios_knl_Mailbox_Module_startup__E                             
00014cd0  ti_sysbios_knl_Mailbox_Object__DESC__C                               
1003c244  ti_sysbios_knl_Mailbox_Object__PARAMS__C                             
00014dd0  ti_sysbios_knl_Mailbox_Object__count__C                              
1003af51  ti_sysbios_knl_Mailbox_Object__delete__S                             
1003b239  ti_sysbios_knl_Mailbox_Object__destruct__S                           
1003af79  ti_sysbios_knl_Mailbox_Object__get__S                                
00014be0  ti_sysbios_knl_Mailbox_Object__table__C                              
1003b735  ti_sysbios_knl_Mailbox_Params__init__S                               
1003a00d  ti_sysbios_knl_Mailbox_construct                                     
10039e7d  ti_sysbios_knl_Mailbox_create                                        
1003b83f  ti_sysbios_knl_Mailbox_delete                                        
1003b843  ti_sysbios_knl_Mailbox_destruct                                      
00014dc0  ti_sysbios_knl_Mailbox_maxTypeAlign__C                               
1003a40d  ti_sysbios_knl_Mailbox_pend__E                                       
1003b03f  ti_sysbios_knl_Mailbox_postInit__I                                   
10039cd9  ti_sysbios_knl_Mailbox_post__E                                       
1003b7c7  ti_sysbios_knl_Queue_Instance_init__E                                
20003208  ti_sysbios_knl_Queue_Module__root__V                                 
00014c44  ti_sysbios_knl_Queue_Object__DESC__C                                 
1003c3b0  ti_sysbios_knl_Queue_Object__PARAMS__C                               
00014cc8  ti_sysbios_knl_Queue_Object__count__C                                
1003b25d  ti_sysbios_knl_Queue_Object__delete__S                               
1003b401  ti_sysbios_knl_Queue_Object__destruct__S                             
1003b421  ti_sysbios_knl_Queue_Object__get__S                                  
00014d64  ti_sysbios_knl_Queue_Object__table__C                                
1003abfd  ti_sysbios_knl_Queue_construct                                       
1003ac2d  ti_sysbios_knl_Queue_create                                          
1003b847  ti_sysbios_knl_Queue_delete                                          
1003b741  ti_sysbios_knl_Queue_dequeue__E                                      
1003b84b  ti_sysbios_knl_Queue_destruct                                        
1003b7cd  ti_sysbios_knl_Queue_elemClear__E                                    
1003b6ad  ti_sysbios_knl_Queue_empty__E                                        
1003b74d  ti_sysbios_knl_Queue_enqueue__E                                      
1003b4d1  ti_sysbios_knl_Queue_get__E                                          
1003b84f  ti_sysbios_knl_Queue_head__E                                         
0001452d  ti_sysbios_knl_Queue_insert__E                                       
1003b853  ti_sysbios_knl_Queue_next__E                                         
1003b4ed  ti_sysbios_knl_Queue_put__E                                          
1003b6bb  ti_sysbios_knl_Queue_remove__E                                       
00014dec  ti_sysbios_knl_Semaphore_Instance_State_pendQ__O                     
1003b281  ti_sysbios_knl_Semaphore_Instance_finalize__E                        
10039ee5  ti_sysbios_knl_Semaphore_Instance_init__E                            
20003210  ti_sysbios_knl_Semaphore_Module__root__V                             
00014d78  ti_sysbios_knl_Semaphore_Object__DESC__C                             
1003c344  ti_sysbios_knl_Semaphore_Object__PARAMS__C                           
1003afa1  ti_sysbios_knl_Semaphore_Object__delete__S                           
1003b2a5  ti_sysbios_knl_Semaphore_Object__destruct__S                         
1003b759  ti_sysbios_knl_Semaphore_Params__init__S                             
1003a95d  ti_sysbios_knl_Semaphore_construct                                   
1003a801  ti_sysbios_knl_Semaphore_create                                      
1003b857  ti_sysbios_knl_Semaphore_delete                                      
1003b85b  ti_sysbios_knl_Semaphore_destruct                                    
00014d68  ti_sysbios_knl_Semaphore_eventPost__C                                
00014bb0  ti_sysbios_knl_Semaphore_eventSync__C                                
1003ad95  ti_sysbios_knl_Semaphore_pendTimeout__I                              
10039005  ti_sysbios_knl_Semaphore_pend__E                                     
100399d1  ti_sysbios_knl_Semaphore_post__E                                     
1003b523  ti_sysbios_knl_Swi_Instance_finalize__E                              
10039f49  ti_sysbios_knl_Swi_Instance_init__E                                  
20002f54  ti_sysbios_knl_Swi_Module_State_0_readyQ__A                          
20003218  ti_sysbios_knl_Swi_Module__root__V                                   
200029a0  ti_sysbios_knl_Swi_Module__state__V                                  
1003b2c9  ti_sysbios_knl_Swi_Module_startup__E                                 
00014be8  ti_sysbios_knl_Swi_Object__DESC__C                                   
1003c2d4  ti_sysbios_knl_Swi_Object__PARAMS__C                                 
00014b7c  ti_sysbios_knl_Swi_Object__count__C                                  
1003b2ed  ti_sysbios_knl_Swi_Object__delete__S                                 
1003b441  ti_sysbios_knl_Swi_Object__destruct__S                               
1003b311  ti_sysbios_knl_Swi_Object__get__S                                    
00014c34  ti_sysbios_knl_Swi_Object__table__C                                  
20002f84  ti_sysbios_knl_Swi_Object__table__V                                  
1003b765  ti_sysbios_knl_Swi_Params__init__S                                   
1003a465  ti_sysbios_knl_Swi_construct                                         
00013959  ti_sysbios_knl_Swi_construct2__E                                     
1003a06d  ti_sysbios_knl_Swi_create                                            
1003b85f  ti_sysbios_knl_Swi_delete                                            
1003b863  ti_sysbios_knl_Swi_destruct                                          
1003b525  ti_sysbios_knl_Swi_disable__E                                        
1003b5d9  ti_sysbios_knl_Swi_enabled__E                                        
00014315  ti_sysbios_knl_Swi_getTrigger__E                                     
00014cf8  ti_sysbios_knl_Swi_numPriorities__C                                  
00013c51  ti_sysbios_knl_Swi_or__E                                             
1003b867  ti_sysbios_knl_Swi_postInit__I                                       
1003a5e9  ti_sysbios_knl_Swi_post__E                                           
100396fd  ti_sysbios_knl_Swi_restoreHwi__E                                     
1003a83d  ti_sysbios_knl_Swi_restore__E                                        
1003a0cd  ti_sysbios_knl_Swi_runLoop__I                                        
10039a41  ti_sysbios_knl_Swi_run__I                                            
1003a12d  ti_sysbios_knl_Swi_schedule__I                                       
000121f1  ti_sysbios_knl_Swi_setPri__E                                         
1003b7d3  ti_sysbios_knl_Swi_startup__E                                        
20003b68  ti_sysbios_knl_Task_Instance_State_0_stack__A                        
10039551  ti_sysbios_knl_Task_Instance_finalize__E                             
100391d9  ti_sysbios_knl_Task_Instance_init__E                                 
20003250  ti_sysbios_knl_Task_Module_State_0_idleTask__A                       
20002fb4  ti_sysbios_knl_Task_Module_State_0_readyQ__A                         
00014bd8  ti_sysbios_knl_Task_Module_State_inactiveQ__O                        
20003220  ti_sysbios_knl_Task_Module__root__V                                  
200029bc  ti_sysbios_knl_Task_Module__state__V                                 
1003a18d  ti_sysbios_knl_Task_Module_startup__E                                
00014c64  ti_sysbios_knl_Task_Object__DESC__C                                  
1003c208  ti_sysbios_knl_Task_Object__PARAMS__C                                
00014e28  ti_sysbios_knl_Task_Object__count__C                                 
1003afc9  ti_sysbios_knl_Task_Object__delete__S                                
1003b335  ti_sysbios_knl_Task_Object__destruct__S                              
1003b359  ti_sysbios_knl_Task_Object__get__S                                   
00014ccc  ti_sysbios_knl_Task_Object__table__C                                 
20002d38  ti_sysbios_knl_Task_Object__table__V                                 
1003b771  ti_sysbios_knl_Task_Params__init__S                                  
1003b7fb  ti_sysbios_knl_Task_SupportProxy_Module__startupDone__S              
1003b7fb  ti_sysbios_knl_Task_SupportProxy_Module__startupDone__S__mangled__   
1003b631  ti_sysbios_knl_Task_SupportProxy_getStackAlignment__E                
1003b631  ti_sysbios_knl_Task_SupportProxy_getStackAlignment__E__mangled__     
1003a789  ti_sysbios_knl_Task_SupportProxy_start__E                            
1003a789  ti_sysbios_knl_Task_SupportProxy_start__E__mangled__                 
1003c1df  ti_sysbios_knl_Task_SupportProxy_swap__E                             
1003c1df  ti_sysbios_knl_Task_SupportProxy_swap__E__mangled__                  
00014dcc  ti_sysbios_knl_Task_allBlockedFunc__C                                
1003a4b9  ti_sysbios_knl_Task_allBlockedFunction__I                            
1003a631  ti_sysbios_knl_Task_blockI__E                                        
00013cdb  ti_sysbios_knl_Task_block__E                                         
1003a3b5  ti_sysbios_knl_Task_construct                                        
1003a1ed  ti_sysbios_knl_Task_create                                           
00014e1c  ti_sysbios_knl_Task_defaultStackHeap__C                              
00014ddc  ti_sysbios_knl_Task_defaultStackSize__C                              
1003b86b  ti_sysbios_knl_Task_delete                                           
1003b86f  ti_sysbios_knl_Task_destruct                                         
1003b53d  ti_sysbios_knl_Task_disable__E                                       
1003b7d9  ti_sysbios_knl_Task_enable__E                                        
1003b37d  ti_sysbios_knl_Task_enter__I                                         
1003a879  ti_sysbios_knl_Task_exit__E                                          
00014531  ti_sysbios_knl_Task_getPri__E                                        
00014d04  ti_sysbios_knl_Task_initStackFlag__C                                 
00014cfc  ti_sysbios_knl_Task_numConstructedTasks__C                           
10039781  ti_sysbios_knl_Task_postInit__I                                      
1003a995  ti_sysbios_knl_Task_processVitalTaskFlag__I                          
1003aff1  ti_sysbios_knl_Task_restoreHwi__E                                    
1003ac5d  ti_sysbios_knl_Task_restore__E                                       
10039ab1  ti_sysbios_knl_Task_schedule__I                                      
1003b681  ti_sysbios_knl_Task_self__E                                          
0000bd25  ti_sysbios_knl_Task_setPri__E                                        
1003b509  ti_sysbios_knl_Task_sleepTimeout__I                                  
10039b21  ti_sysbios_knl_Task_sleep__E                                         
100398ed  ti_sysbios_knl_Task_startCore__E                                     
1003b873  ti_sysbios_knl_Task_startup__E                                       
1003c1eb  ti_sysbios_knl_Task_swapReturn                                       
1003ab39  ti_sysbios_knl_Task_unblockI__E                                      
1003b555  ti_sysbios_knl_Task_unblock__E                                       
1003a555  ti_sysbios_knl_Task_yield__E                                         
10039000  ti_sysbios_rom_cortexm_cc26xx_agama_CC26xx_REVISION__C               
0000fedb  ti_sysbios_rom_cortexm_cc26xx_agama_CC26xx_badRomRevision__E         
00013c69  ti_sysbios_rom_cortexm_cc26xx_agama_CC26xx_checkRevision__E          
2000194c  timerAlignedQ                                                        
2000477c  timerHead                                                            
20001948  timerUnalignedQ                                                      
20003094  txAckReq                                                             
20003068  txCmdHandle                                                          
0000d9cd  txComplete                                                           
00015e48  txPowerTable_ieee                                                    
00015ee8  txPwrTbl_ieee                                                        
00015158  uartCC26XXHWAttrs                                                    
20003918  uartCC26XXObjects                                                    
20004404  uartCC26XXRingBuffer                                                 
0001561c  udmaHWAttrs                                                          
200045e0  udmaObjects                                                          
20000100  xdcRomConstPtr                                                       
20000104  xdcRomExternFuncPtr                                                  
20000108  xdcRomStatePtr                                                       
00014c84  xdc_runtime_Assert_E_assertFailed__C                                 
1003bb81  xdc_runtime_Assert_raise__I                                          
1003bd8d  xdc_runtime_Core_assignLabel__I                                      
1003bc75  xdc_runtime_Core_assignParams__I                                     
1003bcbd  xdc_runtime_Core_constructObject__I                                  
1003ba31  xdc_runtime_Core_createObject__I                                     
1003bb21  xdc_runtime_Core_deleteObject__I                                     
1003bea1  xdc_runtime_Core_destructObject__I                                   
00014d58  xdc_runtime_Error_E_memory__C                                        
200030d4  xdc_runtime_Error_IgnoreBlock                                        
20002a40  xdc_runtime_Error_Module__state__V                                   
1003be31  xdc_runtime_Error_check__E                                           
00014c24  xdc_runtime_Error_maxDepth__C                                        
00014c14  xdc_runtime_Error_policyFxn__C                                       
1003bb7f  xdc_runtime_Error_policySpin__E                                      
00014b24  xdc_runtime_Error_policy__C                                          
00014c0c  xdc_runtime_Error_raiseHook__C                                       
1003be11  xdc_runtime_Error_raiseX__E                                          
1003bf89  xdc_runtime_Gate_enterSystem__E                                      
1003bf7d  xdc_runtime_Gate_leaveSystem__E                                      
00014de0  xdc_runtime_IGateProvider_Interface__BASE__C                         
00014c8c  xdc_runtime_IHeap_Interface__BASE__C                                 
00014b28  xdc_runtime_IModule_Interface__BASE__C                               
1003b0ad  xdc_runtime_Main_Module_GateProxy_Handle__label__S                   
1003b7ff  xdc_runtime_Main_Module_GateProxy_query__E                           
1003b13d  xdc_runtime_Memory_HeapProxy_Handle__label__S                        
1003b13d  xdc_runtime_Memory_HeapProxy_Handle__label__S__mangled__             
1003b161  xdc_runtime_Memory_HeapProxy_Object__delete__S                       
1003bf69  xdc_runtime_Memory_HeapProxy_alloc__E                                
1003bf73  xdc_runtime_Memory_HeapProxy_free__E                                 
00014c38  xdc_runtime_Memory_Module__id__C                                     
20002a00  xdc_runtime_Memory_Module__state__V                                  
1003bab1  xdc_runtime_Memory_alloc__E                                          
1003bf51  xdc_runtime_Memory_calloc__E                                         
00014e50  xdc_runtime_Memory_defaultHeapInstance__C                            
1003beb9  xdc_runtime_Memory_free__E                                           
1003bef5  xdc_runtime_Memory_getMaxDefaultTypeAlign__E                         
1003be4d  xdc_runtime_Memory_valloc__E                                         
20002974  xdc_runtime_Startup_Module__state__V                                 
00000001  xdc_runtime_Startup__EXECFXN__C                                      
00000001  xdc_runtime_Startup__RESETFXN__C                                     
00014b74  xdc_runtime_Startup_execImpl__C                                      
1003bbd5  xdc_runtime_Startup_exec__E                                          
00013c81  xdc_runtime_Startup_exec__I                                          
000155a8  xdc_runtime_Startup_firstFxns__A                                     
00014c18  xdc_runtime_Startup_firstFxns__C                                     
0000f521  xdc_runtime_Startup_getState__I                                      
00014b2c  xdc_runtime_Startup_lastFxns__C                                      
00014d00  xdc_runtime_Startup_maxPasses__C                                     
0001432d  xdc_runtime_Startup_reset__I                                         
1003bf5d  xdc_runtime_Startup_rtsDone__E                                       
00015504  xdc_runtime_Startup_sfxnRts__A                                       
00014d74  xdc_runtime_Startup_sfxnRts__C                                       
000153a0  xdc_runtime_Startup_sfxnTab__A                                       
00014e58  xdc_runtime_Startup_sfxnTab__C                                       
00014de8  xdc_runtime_Startup_startModsFxn__C                                  
1003b879  xdc_runtime_Startup_startMods__I                                     
1003bf8d  xdc_runtime_SysCallback_Module__startupDone__S                       
00014e18  xdc_runtime_SysCallback_abortFxn__C                                  
1003becd  xdc_runtime_SysCallback_abort__E                                     
000107bb  xdc_runtime_SysCallback_defaultAbort                                 
00010bf3  xdc_runtime_SysCallback_defaultExit                                  
0001188f  xdc_runtime_SysCallback_defaultFlush                                 
00011c0b  xdc_runtime_SysCallback_defaultPutch                                 
00014535  xdc_runtime_SysCallback_defaultReady                                 
00014c90  xdc_runtime_SysCallback_exitFxn__C                                   
1003bee1  xdc_runtime_SysCallback_exit__E                                      
00015664  xdc_runtime_SysCallback_flushFxn__C                                  
00014135  xdc_runtime_SysCallback_flush__E                                     
00015668  xdc_runtime_SysCallback_putchFxn__C                                  
00014145  xdc_runtime_SysCallback_putch__E                                     
0001566c  xdc_runtime_SysCallback_readyFxn__C                                  
00014155  xdc_runtime_SysCallback_ready__E                                     
1003b0ad  xdc_runtime_System_Module_GateProxy_Handle__label__S                 
1003b0ad  xdc_runtime_System_Module_GateProxy_Handle__label__S__mangled__      
1003b0d1  xdc_runtime_System_Module_GateProxy_Object__delete__S                
1003bf91  xdc_runtime_System_Module_GateProxy_enter__E                         
1003bf95  xdc_runtime_System_Module_GateProxy_leave__E                         
1003b7ff  xdc_runtime_System_Module_GateProxy_query__E                         
1003b7ff  xdc_runtime_System_Module_GateProxy_query__E__mangled__              
20002a04  xdc_runtime_System_Module__state__V                                  
1003bf83  xdc_runtime_System_Module_startup__E                                 
1003bf8d  xdc_runtime_System_SupportProxy_Module__startupDone__S               
1003becd  xdc_runtime_System_SupportProxy_abort__E                             
1003bee1  xdc_runtime_System_SupportProxy_exit__E                              
00014135  xdc_runtime_System_SupportProxy_flush__E                             
00014145  xdc_runtime_System_SupportProxy_putch__E                             
00014155  xdc_runtime_System_SupportProxy_ready__E                             
00014d08  xdc_runtime_System_abortFxn__C                                       
1003bf99  xdc_runtime_System_abortSpin__E                                      
1003bde9  xdc_runtime_System_abort__E                                          
1003bc29  xdc_runtime_System_atexit__E                                         
00014d6c  xdc_runtime_System_exitFxn__C                                        
1003bf9b  xdc_runtime_System_exitSpin__E                                       
1003be69  xdc_runtime_System_exit__E                                           
00014135  xdc_runtime_System_flush__E                                          
00014cc4  xdc_runtime_System_maxAtexitHandlers__C                              
1003bd4d  xdc_runtime_System_processAtExit__E                                  
00014c08  xdc_runtime_Text_charCnt__C                                          
00015517  xdc_runtime_Text_charTab__A                                          
00014c20  xdc_runtime_Text_charTab__C                                          
1003bdbd  xdc_runtime_Text_cordText__E                                         
00014b88  xdc_runtime_Text_isLoaded__C                                         
00014e10  xdc_runtime_Text_nameEmpty__C                                        
00014dd4  xdc_runtime_Text_nameStatic__C                                       
00014e4c  xdc_runtime_Text_nameUnknown__C                                      
1003be85  xdc_runtime_Text_ropeText__E                                         
1003bf35  xdc_runtime_Timestamp_SupportProxy_get32__E                          
000141ab  xdc_runtime_Timestamp_SupportProxy_get32__E__mangled__               
1003ace5  xdc_runtime_Timestamp_SupportProxy_get64__E                          
1003ace5  xdc_runtime_Timestamp_SupportProxy_get64__E__mangled__               
1003b6c9  xdc_runtime_Timestamp_SupportProxy_getFreq__E                        
1003b6c9  xdc_runtime_Timestamp_SupportProxy_getFreq__E__mangled__             
1003bf35  xdc_runtime_Timestamp_get32__E                                       
1003bf35  xdc_runtime_Timestamp_get32__E                                       
1003ace5  xdc_runtime_Timestamp_get64__E                                       
1003ace5  xdc_runtime_Timestamp_get64__E                                       
1003b6c9  xdc_runtime_Timestamp_getFreq__E                                     
1003b6c9  xdc_runtime_Timestamp_getFreq__E                                     


GLOBAL SYMBOLS: SORTED BY Symbol Address 

address   name                                                                 
-------   ----                                                                 
00000000  __ASM__                                                              
00000000  ti_sysbios_family_arm_m3_Hwi_resetVectors                            
00000001  xdc_runtime_Startup__EXECFXN__C                                      
00000001  xdc_runtime_Startup__RESETFXN__C                                     
00000041  MtMac_commandProcessing                                              
00000089  __ISA__                                                              
0000009c  __PLAT__                                                             
000000c3  __TARG__                                                             
000000e9  __TRDR__                                                             
00000500  __STACK_SIZE                                                         
00001579  macApiDataReq                                                        
0000194d  macWrapperAddDevice                                                  
00001cb9  macBuildHeader                                                       
0000201d  MAC_MlmeResetReq                                                     
00002f69  macPwrVote                                                           
00003221  MAC_McpsDataReq                                                      
000034a1  MAC_MlmeSetSecurityReq                                               
00003701  MtSys_commandProcessing                                              
0000394d  MCP_task                                                             
00003b75  macIncomingFrameSecurityMaterialRetrieval                            
00003d97  NOROM_RFCCpePatchReset                                               
00003fb9  SPICC26XXDMA_transfer                                                
000041d1  macBuildBeacon                                                       
000043a9  macStackEventLoop                                                    
0000457d  MAC_MlmeGetSecurityReq                                               
0000473d  PIN_init                                                             
000048fd  macSendReceiveCmdIeee                                                
00004aad  MAC_MlmeSetReq                                                       
00004c51  Power_sleep                                                          
00004df5  MtUtil_commandProcessing                                             
00004f8d  macWrapperAddKeyInitFCtr                                             
00005125  macApiScanReq                                                        
000052b9  macTxFrame                                                           
000055e1  MT_sendResponse                                                      
00005771  RF_scheduleCmd                                                       
000058fd  macRxBeaconCritical                                                  
00005be9  macTxCompleteCallback                                                
00005d59  macWrapperDeleteKeyAndAssociatedDevices                              
0000602d  NVSSPI25X_write                                                      
000062f5  UARTCC26XX_open                                                      
000065ad  UARTCC26XX_hwiIntFxn                                                 
00006701  macWrapperDeleteDevice                                               
00006851  macTxBeaconCompleteCallback                                          
00006995  macTxCsmaDelay                                                       
00006d51  NVSCC26XX_write                                                      
00006e89  macAutoPoll                                                          
000070ed  Power_init                                                           
0000721d  MtMac_BeaconNotifyInd                                                
0000734b  NVSSPI25X_deinitSpiCs                                                
0000734d  RF_getInfo                                                           
00007479  macAutoPendAddSrcMatchTableEntry                                     
000075a5  macRadioTxGo                                                         
000076d1  RF_close                                                             
00007921  macWrapperDeleteAllDevices                                           
00007c91  UARTCC26XX_read                                                      
00007ecd  SPICC26XXDMA_open                                                    
00007fe9  macRadioCsmaTxCb                                                     
00008105  macDataTxSend                                                        
0000821d  NOROM_SysCtrlStandby                                                 
00008559  macRadioInit                                                         
00008559  macRadioInitIeee                                                     
00008669  macApiAssociateReq                                                   
00008771  RF_open                                                              
00008875  GPIO_setConfig                                                       
00008a75  UARTCC26XX_write                                                     
00008b75  macBeaconStartContinue                                               
00008c75  macApiSyncReq                                                        
00008d71  NVSSPI25X_open                                                       
00008e69  macSetDefaultsByPhyID                                                
00009051  RF_pendCmd                                                           
00009141  SPICC26XXDMA_transferCancel                                          
00009231  macRatCb_B                                                           
00009321  macDeviceReset                                                       
0000940d  macScanNextChan                                                      
000094f9  macAllocTxBuffer                                                     
000097a9  macBeaconSetSched                                                    
00009889  macSetupRATChanCompare                                               
00009969  GPIO_init                                                            
00009b19  macBeaconCheckTxTime                                                 
00009bf1  macCommStatusInd                                                     
00009d9d  MAC_CbackEvent                                                       
00009e6d  macIndirectExpire                                                    
0000a00d  MtMac_ScanCnf                                                        
0000a1a9  macDataTxEnqueue                                                     
0000a275  macOutgoingFrameKeyDescRetrieval                                     
0000a341  macScanRxBeacon                                                      
0000a4d7  _nop                                                                 
0000a4d9  Power_releaseDependency                                              
0000a5a1  RF_control                                                           
0000a669  Power_setDependency                                                  
0000a72d  RF_setTxPower                                                        
0000a8b1  macApiDisassociateReq                                                
0000a971  macBuildBeaconNotifyInd                                              
0000aaf1  MAC_MlmeScanReq                                                      
0000ac69  macAutoPendMaintainSrcMatchTable                                     
0000addd  macCoordReset                                                        
0000ae95  macRatCb_A                                                           
0000af4d  PowerCC26XX_standbyPolicy                                            
0000b001  macApiAssociateRsp                                                   
0000b0b5  macApiBeaconStartReq                                                 
0000b2c9  macWrapperGetDefaultSourceKey                                        
0000b379  macCcmStarTransform                                                  
0000b425  macStartSetParams                                                    
0000b57d  RF_getTxPower                                                        
0000b625  macBeaconSyncLoss                                                    
0000b775  NOROM_AESWriteToKeyStore                                             
0000b8bd  macStartBegin                                                        
0000ba05  RF_postCmd                                                           
0000baa5  __TI_auto_init                                                       
0000bbe5  macIndirectSend                                                      
0000bc85  macSendDataMsg                                                       
0000bd25  ti_sysbios_knl_Task_setPri__E                                        
0000bdc5  NOROM_SetupTrimDevice                                                
0000bdc5  ti_sysbios_family_arm_cc26xx_Boot_trimDevice                         
0000be61  NPITLUART_initializeTransport                                        
0000befd  UARTCC26XX_swiIntFxn                                                 
0000c035  __aeabi_memcpy                                                       
0000c035  __aeabi_memcpy4                                                      
0000c035  __aeabi_memcpy8                                                      
0000c035  memcpy                                                               
0000c16d  NOROM_OSCHF_GetStartupTime                                           
0000c16d  PowerCC26XX_getXoscStartupTime                                       
0000c205  macBuildRealign                                                      
0000c29d  macIndirectMark                                                      
0000c335  macRxBeacon                                                          
0000c3cd  macScanRxCoordRealign                                                
0000c465  macSetupReceiveCmd                                                   
0000c4fd  ti_sysbios_knl_Clock_workFuncDynamic__E                              
0000c595  __aeabi_uldivmod                                                     
0000c62d  PIN_open                                                             
0000c6c1  macCbackForEvent                                                     
0000c755  macCcmStarInverseTransform                                           
0000c7e9  NPITL_writeTL                                                        
0000c909  macDataTxComplete                                                    
0000cb47  macApiPwrOnReq                                                       
0000cb49  NOROM_SetupStepVddrTrimTo                                            
0000cbd5  NPIFrame_frameMsg                                                    
0000cc61  SPICC26XXDMA_control                                                 
0000cced  UARTCC26XX_close                                                     
0000cd79  UARTCC26XX_writeCancel                                               
0000ce91  macApiPurgeReq                                                       
0000cf1d  ti_sysbios_gates_GateMutexPri_enter__E                               
0000d145  macBuildCommonReq                                                    
0000d1cd  MAC_SrcMatchEnable                                                   
0000d2d5  macRxAssocRsp                                                        
0000d3dd  AESCCM_open                                                          
0000d55d  NVSCC26XX_open                                                       
0000d5dd  RF_yield                                                             
0000d65d  macRxDataReq                                                         
0000d6dd  macTimerCancel                                                       
0000d75d  ti_sysbios_family_arm_cc26xx_Timer_start__E                          
0000d7dd  NVSSPI25X_close                                                      
0000d8d5  macApiStartReq                                                       
0000d951  macTxDoneCallback                                                    
0000d9cd  txComplete                                                           
0000dac5  __aeabi_memclr                                                       
0000dac5  __aeabi_memclr4                                                      
0000dac5  __aeabi_memclr8                                                      
0000dac7  __aeabi_memset                                                       
0000dac7  __aeabi_memset4                                                      
0000dac7  __aeabi_memset8                                                      
0000dacd  memset                                                               
0000db3f  macNoAction                                                          
0000dd21  macScanStartTimer                                                    
0000dd99  macTrackTimeoutCallback                                              
0000de89  macKeyDescriptorLookup                                               
0000df75  PowerCC26X2_auxISR                                                   
0000e0d1  ti_sysbios_gates_GateMutexPri_leave__E                               
0000e145  macBeaconSetupCap                                                    
0000e1b5  __aeabi_ldivmod                                                      
0000e223  __aeabi_idiv0                                                        
0000e223  __aeabi_ldiv0                                                        
0000e225  PIN_add                                                              
0000e291  UARTCC26XX_readCancel                                                
0000e2fd  macCcmDecrypt                                                        
0000e369  macDisassocComplete                                                  
0000e3d5  macSendMsg                                                           
0000e441  main                                                                 
0000e4ad  NOROM_OSCHF_AttemptToSwitchToXosc                                    
0000e515  NPITask_task                                                         
0000e57d  RF_getCurrentTime                                                    
0000e5e5  RF_ratDisableChannel                                                 
0000e6b5  __TI_decompress_lzss                                                 
0000e71d  macCcmEncrypt                                                        
0000e7ed  macRadioUpdateTxPower                                                
0000e855  macRxOn                                                              
0000e923  ti_sysbios_BIOS_nullFunc__I                                          
0000e925  CryptoResourceCC26XX_constructRTOSObjects                            
0000e989  UARTCC26XX_control                                                   
0000e9ed  macApiOrphanRsp                                                      
0000ea51  macAssocDataRxInd                                                    
0000eab5  macMcuOverflowSetPeriod                                              
0000eb19  macRxCoordRealign                                                    
0000eb7d  macRxDisassoc                                                        
0000ebe1  macUpdatePanId                                                       
0000ec45  GPIO_write                                                           
0000eee5  macBeaconPeriodCallback                                              
0000ef45  macExecute                                                           
0000efa5  macIndirectTxFrame                                                   
0000f005  macMcuOverflowSetCompare                                             
0000f065  macRadioTxPrepCsmaSlottedIeee                                        
0000f0c5  macRadioTxPrepCsmaUnslotted                                          
0000f0c5  macRadioTxPrepCsmaUnslottedIeee                                      
0000f125  macRxHaltCleanup                                                     
0000f185  macScanComplete                                                      
0000f241  PIN_remove                                                           
0000f40d  macPollDataRxInd                                                     
0000f469  macLowLevelReset                                                     
0000f469  macSymbolTimerInit                                                   
0000f469  macSymbolTimerReset                                                  
0000f4c5  macTrackPeriodCallback                                               
0000f521  xdc_runtime_Startup_getState__I                                      
0000f57d  MAC_ResumeReq                                                        
0000f62d  PowerCC26X2_initiateCalibration                                      
0000f685  RF_TxPowerTable_findValue                                            
0000f78d  ResetISR                                                             
0000f78d  _c_int00                                                             
0000f895  macRadioUpdateChannel                                                
0000f8ed  macTimerAddTimer                                                     
0000f945  macTimerUpdateSymbolTimer                                            
0000fb41  NVSCC26XX_init                                                       
0000fbe9  macApiPollReq                                                        
0000fce5  macBeaconTxCallback                                                  
0000fd39  macSyncTimeoutCallback                                               
0000fe89  SPICC26XXDMA_close                                                   
0000fedb  ti_sysbios_rom_cortexm_cc26xx_agama_CC26xx_badRomRevision__E         
0000fedd  ClockP_construct                                                     
0000ff2d  GPIO_enableInt                                                       
0000ff7d  NPITask_createTask                                                   
0001024d  macAssocDataReqComplete                                              
0001029d  macBeaconPrepareCallback                                             
000102ed  macIndirectRequeueFrame                                              
0001038d  macRxOffRequest                                                      
000103dd  macTrackStartCallback                                                
0001042d  MtMac_DataCnf                                                        
00010479  NOROM_ChipInfo_GetChipType                                           
00010511  UDMACC26XX_open                                                      
0001055d  copy_in                                                              
0001068d  macTxAckNotReceivedCallback                                          
000106d9  macUpdatePayloadIEPtr                                                
00010771  icall_slimMsgParser                                                  
000107bb  xdc_runtime_SysCallback_defaultAbort                                 
000107bd  MAC_MlmeGetReq                                                       
00010805  MAC_MlmeGetSecurityReqSize                                           
0001084d  NOROM_AESStartDMAOperation                                           
00010895  NOROM_RFCSynthPowerDown                                              
00010925  NVSSPI25X_read                                                       
0001096d  NVS_open                                                             
000109b5  PIN_setOutputEnable                                                  
00010a8d  macBeaconStartFrameResponseTimer                                     
00010ad5  macRadioSetChannel                                                   
00010b1d  macRxAssociateReq                                                    
00010bad  RingBuf_put                                                          
00010bf3  xdc_runtime_SysCallback_defaultExit                                  
00010bf5  CryptoResourceCC26XX_destructRTOSObjects                             
00010c39  NOROM_OSCHF_SwitchToRcOscTurnOffXosc                                 
00010d05  NVSCC26XX_read                                                       
00010dd1  SPI_init                                                             
00010e15  UART_init                                                            
00010e59  macAssocDataReq                                                      
00010e9d  macDestSAddrCmp                                                      
00010ee1  macPollDataReqComplete                                               
00010f69  MtMac_CommStatusInd                                                  
0001102d  NOROM_AESWriteCCMInitializationVector                                
000110ed  PowerCC26XX_isStableXOSC_HF                                          
0001112d  PowerCC26XX_switchXOSC_HF                                            
0001116d  RingBuf_get                                                          
000111ad  macCheckPhyRate                                                      
000111ed  macPollFrameResponseTimeout                                          
0001122d  macRadioWakeupCb                                                     
000112ad  __aeabi_uidiv                                                        
000112ad  __aeabi_uidivmod                                                     
000112ed  ti_sysbios_family_arm_cc26xx_Timer_setThreshold__I                   
0001132d  HwiP_construct                                                       
0001136b  MtMac_SyncLossInd                                                    
000113a9  AESCCM_init                                                          
00011421  NOROM_ChipInfo_GetHwRevision                                         
00011499  PINCC26XX_getConfig                                                  
000114d5  PIN_setOutputValue                                                   
00011589  SPI_open                                                             
000115c5  SwiP_construct                                                       
00011601  UART_open                                                            
00011679  macBeaconRequeue                                                     
000116b5  macRxDisable                                                         
000116f1  macStartContinue                                                     
0001172d  macStartFrameResponseTimer                                           
00011769  macSymbolTimerRealignIeee                                            
000117a5  mac_msg_deallocate                                                   
000117e1  ti_sysbios_family_arm_m3_Hwi_construct2__E                           
00011857  ApiMac_buildMsgCapInfo                                               
0001188f  xdc_runtime_SysCallback_defaultFlush                                 
00011901  PIN_setInterrupt                                                     
00011939  macAssocFailed                                                       
00011971  macBeaconStopTrack                                                   
000119a9  macGetRadioTxPowerReg                                                
000119e1  macRadioSetPanCoordinator                                            
00011a19  macSymbolTimerCount                                                  
00011a19  macTimerGetTime                                                      
00011a51  macSymbolTimerSetRollover                                            
00011af9  ti_sysbios_family_arm_cc26xx_Timer_getCurrentTick__E                 
00011b69  ApiMac_convertCapabilityInfo                                         
00011b9f  MtMac_AssociateInd                                                   
00011bd5  UDMACC26XX_close                                                     
00011c0b  xdc_runtime_SysCallback_defaultPutch                                 
00011c0d  MtSys_resetReq                                                       
00011c41  NOROM_AESConfigureCCMCtrl                                            
00011c75  NOROM_AESReadFromKeyStore                                            
00011ca9  NOROM_AESReadTag                                                     
00011cdd  NOROM_SysCtrlIdle                                                    
00011d11  NPIRxBuf_ReadFromRxBuf                                               
00011d79  NVSSPI25X_init                                                       
00011dad  PIN_setConfig                                                        
00011de1  Power_releaseConstraint                                              
00011eb1  RF_powerConstraintRelease                                            
00011fe9  macAssociateCnf                                                      
0001201d  macDataRxInd                                                         
00012051  macSetUserConfig                                                     
00012085  macStartBeaconPrepareCallback                                        
000120b9  macStartBroadcastPendTimer                                           
000120ed  macStopCmd                                                           
00012121  macSymbolTimerSetTrigger                                             
00012155  macTxDecrypt                                                         
00012189  macTxUpdateIE                                                        
000121f1  ti_sysbios_knl_Swi_setPri__E                                         
00012257  macScanCnfInit                                                       
00012289  ti_sysbios_family_arm_cc26xx_Timer_setNextTick__E                    
000122bb  ti_sysbios_gates_GateMutexPri_insertPri__I                           
000122ed  ApiMac_mlmeGetReqArrayLen                                            
0001231d  GPIO_hwiIntFxn                                                       
0001234d  NPITL_readTL                                                         
000123ad  NVSCC26XX_erase                                                      
000123dd  NVSSPI25X_erase                                                      
0001240d  Power_setConstraint                                                  
0001246d  macRxOrphan                                                          
0001249d  macTimerSetRollover                                                  
0001252d  ti_sysbios_BIOS_atExitFunc__I                                        
0001255d  ti_sysbios_BIOS_startFunc__I                                         
0001258d  ti_sysbios_family_arm_cc26xx_Timer_initDevice__I                     
000125bd  ti_sysbios_gates_GateMutexPri_Object__create__S                      
000125ed  ti_sysbios_gates_GateMutexPri_create                                 
00012649  GPIO_setCallback                                                     
00012675  MtMac_AssociateCnf                                                   
000126a1  MtMac_DisassociateInd                                                
000126cd  NVSSPI25X_control                                                    
000126f9  NVS_init                                                             
00012725  PINCC26XX_setMux                                                     
000127a9  SemaphoreP_constructBinary                                           
000127d5  SemaphoreP_createBinary                                              
0001282d  macBeaconInit                                                        
00012859  macPibReset                                                          
00012885  macRadioSetIEEEAddr                                                  
000128b1  macRadioStopScan                                                     
00012935  ti_sysbios_knl_Clock_getTicksUntilInterrupt__E                       
0001298d  List_insert                                                          
00012a0b  ti_sysbios_knl_Clock_getTimeout__E                                   
00012ad5  MAC_MlmeGetPointerSecurityReq                                        
00012afd  MtMac_DisassociateCnf                                                
00012b25  NOROM_AESVerifyTag                                                   
00012b4d  NOROM_AESWaitForIRQFlags                                             
00012b75  NOROM_OSCHF_TurnOnXosc                                               
00012b9d  NOROM_RFCOverrideSearch                                              
00012bed  PowerCC26XX_schedulerDisable                                         
00012c15  PowerCC26XX_schedulerRestore                                         
00012c3d  Power_registerNotify                                                 
00012c8d  macApiPending                                                        
00012cb5  macBeaconCheckSched                                                  
00012cdd  macCoordAddrCmp                                                      
00012d05  macGetCoordAddress                                                   
00012d2d  macRxHardDisable                                                     
00012d55  macStartComplete                                                     
00012d7d  macTimerRecalcUnaligned                                              
00012da5  macTxTimestampCallback                                               
00012e1d  List_put                                                             
00012e43  List_putHead                                                         
00012e69  List_remove                                                          
00012e8f  MtMac_OrphanInd                                                      
00012f01  MtMac_PollInd                                                        
00012f25  NOROM_RFCDoorbellSendTo                                              
00013021  macAssocFrameResponseTimeout                                         
00013045  macBeaconReset                                                       
00013069  macRxSoftDisable                                                     
0001308d  macTimerAligned                                                      
000130b1  memcmp                                                               
000130d5  ti_sysbios_BIOS_registerRTSLock__I                                   
000130f9  ti_sysbios_BIOS_removeRTSLock__I                                     
0001311d  ti_sysbios_family_arm_cc26xx_Timer_getMaxTicks__E                    
00013141  ti_sysbios_gates_GateMutexPri_Object__delete__S                      
00013165  List_get                                                             
000131a9  macFrameDuration                                                     
000131a9  macFrameDurationIeee                                                 
000132ad  MAC_SrcMatchAckAllPending                                            
000132cd  NPIRxBuf_GetRxBufCount                                               
000132ed  NPITL_getRxBufLen                                                    
0001330d  Power_unregisterNotify                                               
000133ad  crc_update                                                           
000133cd  macBeaconCoordReset                                                  
000133ed  macBeaconSetPrepareTime                                              
0001340d  macDataRxMemAlloc                                                    
0001342d  macDataSend                                                          
0001344d  macGetRadioState                                                     
0001346d  macRadioSetShortAddr                                                 
0001348d  macRadioSwInit                                                       
000134ad  macRxBeaconReq                                                       
000134cd  macRxOff                                                             
000134ed  macRxSoftEnable                                                      
0001352d  macSendFsCmd                                                         
0001354d  macTimer                                                             
0001356d  ti_sysbios_BIOS_rtsLock__I                                           
0001358d  ti_sysbios_family_arm_cc26xx_Timer_dynamicStub__E                    
000135ad  PIN_close                                                            
000135cb  Power_getTransitionLatency                                           
00013607  macPibIndex                                                          
00013625  macScanFailedInProgress                                              
00013643  macTimerRemoveTimer                                                  
0001367f  AESCCM_close                                                         
0001369d  MAC_MlmeGetReqSize                                                   
000136b9  NOROM_ChipInfo_GetChipFamily                                         
000136d5  NOROM_FlashProgram                                                   
000136f1  NOROM_FlashSectorErase                                               
00013729  NVSCC26XX_getAttrs                                                   
00013745  NVSCC26XX_lock                                                       
00013761  NVSSPI25X_initSpiCs                                                  
0001377d  NVSSPI25X_lock                                                       
000137ed  RF_getRssi                                                           
00013809  RF_powerConstraintSet                                                
00013841  macConflictSyncLossInd                                               
0001385d  macMcuTimerCapture                                                   
00013879  macPollRxDisassoc                                                    
00013895  macRadioSetPanID                                                     
000138b1  macRxAckTxDoneCallback                                               
000138b1  macTxAckIsr                                                          
00013905  macSymbolTimerSetTriggerRollover                                     
0001393d  ti_sysbios_BIOS_errorRaiseHook__I                                    
00013959  ti_sysbios_knl_Swi_construct2__E                                     
00013975  MtMac_PollCnf                                                        
0001398f  MtMac_PurgeCnf                                                       
000139a9  PowerCC26XX_calibrate                                                
000139dd  copyApiMacAddrToMacAddr                                              
000139f7  macLowLevelDiags                                                     
00013a29  ApiMac_mlmeSetReqArray                                               
00013a41  NOROM_ChipInfo_GetPackageType                                        
00013a59  PIN_getConfig                                                        
00013a71  Power_idleFunc                                                       
00013a89  UARTCC26XX_init                                                      
00013aa1  UART_Params_init                                                     
00013ab9  _args_main                                                           
00013ae9  macGetMyAddrMode                                                     
00013b01  macPollCnf                                                           
00013b19  macPollRxAssocRsp                                                    
00013b31  macRxOnRequest                                                       
00013b49  macStartResponseTimer                                                
00013b61  macStateIdleOrPolling                                                
00013b79  macSymbolTimerRestore                                                
00013b91  macTimerInit                                                         
00013ba9  macWrapper8ByteUnused                                                
00013bf1  __aeabi_lmul                                                         
00013c09  ti_sysbios_BIOS_rtsUnlock__I                                         
00013c21  ti_sysbios_gates_GateMutexPri_Handle__label__S                       
00013c39  ti_sysbios_gates_GateMutexPri_Instance_init__E                       
00013c51  ti_sysbios_knl_Swi_or__E                                             
00013c69  ti_sysbios_rom_cortexm_cc26xx_agama_CC26xx_checkRevision__E          
00013c81  xdc_runtime_Startup_exec__I                                          
00013c99  RF_cancelCmd                                                         
00013cc5  ti_sysbios_BIOS_exitFunc__I                                          
00013cdb  ti_sysbios_knl_Task_block__E                                         
00013cf1  ApiMac_enableFH                                                      
00013d05  ApiMac_mlmeResetReq                                                  
00013d19  ApiMac_randomByte                                                    
00013d2d  List_clearList                                                       
00013d41  MAC_CbackQueryRetransmit                                             
00013d55  MAC_SrcMatchCheckAllPending                                          
00013d69  MtMac_AsyncCnf                                                       
00013d7d  MtMac_StartCnf                                                       
00013d91  NOROM_RFCCpeIntGetAndClear                                           
00013da5  PowerCC26X2_calibrate                                                
00013db9  RF_Params_init                                                       
00013dcd  RF_RatConfigCompare_init                                             
00013df5  RF_flushCmd                                                          
00013e09  RF_ratCompare                                                        
00013e45  SPI_Params_init                                                      
00013e81  macMainReserve                                                       
00013e95  macMcuInit                                                           
00013ea9  macMcuOverflowCapture                                                
00013ebd  macRxPanConflict                                                     
00013ee5  macStateScanning                                                     
00013f49  ti_sysbios_family_arm_cc26xx_Timer_getCount64__E                     
00013f5d  ti_sysbios_knl_Clock_doTick__I                                       
00013f71  NVSSPI25X_assertSpiCs                                                
00013f83  NVSSPI25X_deassertSpiCs                                              
00013f95  NVSSPI25X_getAttrs                                                   
00013fa7  RF_getCmdOp                                                          
00013fb9  RingBuf_construct                                                    
00013fcb  SemaphoreP_pend                                                      
00013fdd  macRadioSetTxPower                                                   
00013fef  macSecurityPibIndex                                                  
00014015  AESCCM_Params_init                                                   
00014025  ClockP_isActive                                                      
00014035  HwiP_Params_init                                                     
00014045  MAC_McpsPurgeReq                                                     
00014055  NOROM_RFCHwIntGetAndClear                                            
00014065  PINCC26XX_getPinCount                                                
000140a5  SwiP_Params_init                                                     
000140b5  macAssocRxDisassoc                                                   
000140c5  macCheckSched                                                        
000140d5  macRxEnable                                                          
000140e5  macSetEvent16                                                        
000140f5  macSetEvent                                                          
00014105  ti_sysbios_family_arm_m3_Hwi_post__E                                 
00014105  ti_sysbios_hal_Hwi_HwiProxy_post__E                                  
00014105  ti_sysbios_hal_Hwi_post__E                                           
00014115  ti_sysbios_gates_GateMutexPri_Instance_finalize__E                   
00014135  xdc_runtime_SysCallback_flush__E                                     
00014135  xdc_runtime_System_SupportProxy_flush__E                             
00014135  xdc_runtime_System_flush__E                                          
00014145  xdc_runtime_SysCallback_putch__E                                     
00014145  xdc_runtime_System_SupportProxy_putch__E                             
00014155  xdc_runtime_SysCallback_ready__E                                     
00014155  xdc_runtime_System_SupportProxy_ready__E                             
00014165  CryptoKeyPlaintext_initBlankKey                                      
00014165  CryptoKeyPlaintext_initKey                                           
00014173  NVS_write                                                            
00014181  RF_ScheduleCmdParams_init                                            
0001418f  SPICC26XXDMA_init                                                    
0001419d  __TI_decompress_none                                                 
000141ab  ti_sysbios_family_arm_cc26xx_TimestampProvider_get32__E              
000141ab  xdc_runtime_Timestamp_SupportProxy_get32__E__mangled__               
000141b9  NOROM_CPUcpsid                                                       
000141c5  NOROM_CPUcpsie                                                       
000141d1  NPITL_checkNpiBusy                                                   
000141e9  NVSCC26XX_unlock                                                     
000141f5  NVSSPI25X_unlock                                                     
00014201  PIN_registerIntCb                                                    
0001420d  Power_getConstraintMask                                              
00014219  Power_getDependencyCount                                             
00014225  Power_getTransitionState                                             
00014231  RF_powerConstraintGet                                                
00014249  SemaphoreP_delete                                                    
00014255  _register_lock                                                       
00014261  _register_unlock                                                     
00014279  __TI_zero_init                                                       
00014285  macDataRxMemFree                                                     
00014291  macIsCsmOperational                                                  
0001429d  macRadioTxCancelAckTimeout                                           
000142a9  macRadioTxCancelTxAck                                                
000142b5  macSetupFsCmd                                                        
000142f1  ti_sysbios_BIOS_getThreadType__E                                     
000142fd  ti_sysbios_gates_GateMutexPri_Params__init__S                        
00014309  ti_sysbios_hal_Hwi_Params__init__S                                   
00014315  ti_sysbios_knl_Swi_getTrigger__E                                     
0001432d  xdc_runtime_Startup_reset__I                                         
00014339  ClockP_Params_init                                                   
00014343  MAC_MlmeAssociateReq                                                 
0001434d  MAC_MlmeAssociateRsp                                                 
00014357  MAC_MlmeDisassociateReq                                              
00014361  MAC_MlmeOrphanRsp                                                    
0001436b  MAC_MlmeWSAsyncReq                                                   
00014375  NVS_erase                                                            
0001437f  NVS_getAttrs                                                         
00014389  NVS_read                                                             
00014393  SPI_close                                                            
0001439d  SPI_transfer                                                         
000143a7  UART_control                                                         
000143b1  UART_read                                                            
000143bb  UART_write                                                           
000143c5  UDMACC26XX_hwiIntFxn                                                 
000143cf  MAC_RandomByte                                                       
000143cf  macMcuRandomByte                                                     
000143cf  macRadioRandomByte                                                   
000143d9  macSetSched                                                          
000143e3  AESCCM_Operation_init                                                
000143eb  MAC_MlmePollReq                                                      
000143f3  MAC_MlmeStartReq                                                     
000143fb  MAC_MlmeSyncReq                                                      
00014403  MtMac_AsyncInd                                                       
0001440b  MtMac_DataInd                                                        
00014413  NVSCC26XX_close                                                      
00014425  macIEEEGetPhyDesc                                                    
0001443d  AESCCM_oneStepDecrypt                                                
00014443  AESCCM_oneStepEncrypt                                                
00014449  Main_excHandler                                                      
0001444f  Main_halAssertHandler                                                
00014455  NOROM_CPUdelay                                                       
0001445b  NVSCC26XX_control                                                    
00014467  RF_runDirectCmd                                                      
0001446d  RF_runImmediateCmd                                                   
00014473  UARTCC26XX_readPolling                                               
00014479  UARTCC26XX_writePolling                                              
0001447f  macApiBadState                                                       
00014485  macBeaconBattLifeCallback                                            
0001448b  macBroadcastPendCallback                                             
00014491  macSecCpy                                                            
00014497  ti_sysbios_family_arm_m3_Hwi_setFunc__E                              
000144a1  ClockP_destruct                                                      
000144a5  ClockP_getCpuFreq                                                    
000144a9  ClockP_getTimeout                                                    
000144ad  ClockP_setTimeout                                                    
000144b1  ClockP_start                                                         
000144b5  ClockP_stop                                                          
000144b9  HwiP_destruct                                                        
000144bd  HwiP_disable                                                         
000144c1  HwiP_enableInterrupt                                                 
000144c5  HwiP_post                                                            
000144c9  HwiP_setFunc                                                         
000144cd  HwiP_setPriority                                                     
000144d1  MAC_EnableFH                                                         
000144d5  MAC_MlmeFHGetReq                                                     
000144d9  MAC_MlmeFHGetReqSize                                                 
000144dd  MAC_MlmeFHSetReq                                                     
000144e1  MAC_StartFH                                                          
000144e5  NOROM_RFCOverrideUpdate                                              
000144e9  NPITask_Fxn                                                          
000144ed  SemaphoreP_destruct                                                  
000144f1  SemaphoreP_post                                                      
000144f5  SwiP_destruct                                                        
000144f9  SwiP_disable                                                         
000144fd  SwiP_getTrigger                                                      
00014501  SwiP_or                                                              
00014505  SwiP_post                                                            
00014509  SwiP_setPriority                                                     
0001450d  macDataTxDelayCallback                                               
00014511  macPanConflictComplete                                               
00014515  macRadioComputeLQI                                                   
00014525  ti_sysbios_gates_GateMutexPri_query__E                               
00014529  ti_sysbios_knl_Clock_isActive__E                                     
0001452d  ti_sysbios_knl_Queue_insert__E                                       
00014531  ti_sysbios_knl_Task_getPri__E                                        
00014535  xdc_runtime_SysCallback_defaultReady                                 
00014740  macKeySourceLen                                                      
00014744  macAuthTagLen                                                        
0001474c  macCmdLen                                                            
00014755  macSendMsgDataSize                                                   
00014761  macCbackEventTbl                                                     
0001476d  macCmdBufSize                                                        
0001477b  macTxFrameSuccess                                                    
00014789  macTxFrameFailed                                                     
00014798  macIEEEPhyTable                                                      
000147a8  macSendMsgBufSize                                                    
000147c0  macTimerRolloverValue                                                
00014800  macSecurityPibTbl                                                    
00014858  macAssociatingSt                                                     
000148c6  macPollingSt                                                         
00014934  macStartingSt                                                        
000149a4  macPibDefaults                                                       
00014a2c  macPibTbl                                                            
00014b24  ROM_constStruct                                                      
00014b24  xdc_runtime_Error_policy__C                                          
00014b28  xdc_runtime_IModule_Interface__BASE__C                               
00014b2c  xdc_runtime_Startup_lastFxns__C                                      
00014b34  ti_sysbios_knl_Event_Object__DESC__C                                 
00014b54  ti_sysbios_gates_GateMutex_Object__DESC__C                           
00014b74  xdc_runtime_Startup_execImpl__C                                      
00014b78  ti_sysbios_gates_GateMutex_Instance_State_sem__O                     
00014b7c  ti_sysbios_knl_Swi_Object__count__C                                  
00014b80  ti_sysbios_knl_Idle_funcList__C                                      
00014b88  xdc_runtime_Text_isLoaded__C                                         
00014b8c  ti_sysbios_knl_Clock_Object__DESC__C                                 
00014bac  ti_sysbios_knl_Mailbox_Instance_State_dataQue__O                     
00014bb0  ti_sysbios_knl_Semaphore_eventSync__C                                
00014bb4  ti_sysbios_gates_GateMutex_Module__FXNS__C                           
00014bd8  ti_sysbios_knl_Task_Module_State_inactiveQ__O                        
00014bdc  ti_sysbios_family_arm_m3_Hwi_Module__id__C                           
00014bde  ti_sysbios_family_arm_cc26xx_Timer_Module__id__C                     
00014be0  ti_sysbios_knl_Mailbox_Object__table__C                              
00014be4  ti_sysbios_family_arm_m3_Hwi_Object__table__C                        
00014be8  ti_sysbios_knl_Swi_Object__DESC__C                                   
00014c08  xdc_runtime_Text_charCnt__C                                          
00014c0c  xdc_runtime_Error_raiseHook__C                                       
00014c10  ti_sysbios_heaps_HeapMem_Object__table__C                            
00014c14  xdc_runtime_Error_policyFxn__C                                       
00014c18  xdc_runtime_Startup_firstFxns__C                                     
00014c20  xdc_runtime_Text_charTab__C                                          
00014c24  xdc_runtime_Error_maxDepth__C                                        
00014c28  ti_sysbios_family_arm_m3_TaskSupport_stackAlignment__C               
00014c2c  ti_sysbios_family_arm_m3_Hwi_NUM_INTERRUPTS__C                       
00014c30  ti_sysbios_knl_Clock_triggerClock__C                                 
00014c34  ti_sysbios_knl_Swi_Object__table__C                                  
00014c38  xdc_runtime_Memory_Module__id__C                                     
00014c3c  ti_sysbios_heaps_HeapMem_Module__gateObj__C                          
00014c40  ti_sysbios_family_arm_cc26xx_Timer_startupNeeded__C                  
00014c44  ti_sysbios_knl_Queue_Object__DESC__C                                 
00014c64  ti_sysbios_knl_Task_Object__DESC__C                                  
00014c84  xdc_runtime_Assert_E_assertFailed__C                                 
00014c88  ti_sysbios_gates_GateHwi_Module__id__C                               
00014c8c  xdc_runtime_IHeap_Interface__BASE__C                                 
00014c90  xdc_runtime_SysCallback_exitFxn__C                                   
00014c94  ti_sysbios_heaps_HeapMem_Module__id__C                               
00014c98  ti_sysbios_family_arm_m3_Hwi_excHandlerFunc__C                       
00014c9c  ti_sysbios_heaps_HeapMem_Module__FXNS__C                             
00014cc4  xdc_runtime_System_maxAtexitHandlers__C                              
00014cc8  ti_sysbios_knl_Queue_Object__count__C                                
00014ccc  ti_sysbios_knl_Task_Object__table__C                                 
00014cd0  ti_sysbios_knl_Mailbox_Object__DESC__C                               
00014cf0  ti_sysbios_family_arm_m3_Hwi_nullIsrFunc__C                          
00014cf4  ti_sysbios_knl_Clock_tickMode__C                                     
00014cf6  ti_sysbios_gates_GateMutex_Module__id__C                             
00014cf8  ti_sysbios_knl_Swi_numPriorities__C                                  
00014cfc  ti_sysbios_knl_Task_numConstructedTasks__C                           
00014d00  xdc_runtime_Startup_maxPasses__C                                     
00014d04  ti_sysbios_knl_Task_initStackFlag__C                                 
00014d08  xdc_runtime_System_abortFxn__C                                       
00014d0c  ti_sysbios_knl_Mailbox_Instance_State_dataSem__O                     
00014d10  ti_sysbios_gates_GateHwi_Module__FXNS__C                             
00014d34  ti_sysbios_hal_Hwi_Object__DESC__C                                   
00014d54  ti_sysbios_family_arm_m3_Hwi_priGroup__C                             
00014d58  xdc_runtime_Error_E_memory__C                                        
00014d5c  ti_sysbios_family_arm_m3_Hwi_E_alreadyDefined__C                     
00014d60  ti_sysbios_knl_Mailbox_Instance_State_freeSem__O                     
00014d64  ti_sysbios_knl_Queue_Object__table__C                                
00014d68  ti_sysbios_knl_Semaphore_eventPost__C                                
00014d6c  xdc_runtime_System_exitFxn__C                                        
00014d70  ti_sysbios_heaps_HeapMem_reqAlign__C                                 
00014d74  xdc_runtime_Startup_sfxnRts__C                                       
00014d78  ti_sysbios_knl_Semaphore_Object__DESC__C                             
00014d98  ti_sysbios_gates_GateHwi_Object__DESC__C                             
00014db8  ti_sysbios_heaps_HeapMem_Object__count__C                            
00014dbc  ti_sysbios_family_arm_m3_Hwi_numSparseInterrupts__C                  
00014dc0  ti_sysbios_knl_Mailbox_maxTypeAlign__C                               
00014dc4  ti_sysbios_family_arm_cc26xx_TimestampProvider_useClockTimer__C      
00014dc8  ti_sysbios_knl_Event_Instance_State_pendQ__O                         
00014dcc  ti_sysbios_knl_Task_allBlockedFunc__C                                
00014dd0  ti_sysbios_knl_Mailbox_Object__count__C                              
00014dd4  xdc_runtime_Text_nameStatic__C                                       
00014dd8  ti_sysbios_knl_Clock_Module_State_clockQ__O                          
00014ddc  ti_sysbios_knl_Task_defaultStackSize__C                              
00014de0  xdc_runtime_IGateProvider_Interface__BASE__C                         
00014de4  ti_sysbios_family_arm_m3_Hwi_E_hwiLimitExceeded__C                   
00014de8  xdc_runtime_Startup_startModsFxn__C                                  
00014dec  ti_sysbios_knl_Semaphore_Instance_State_pendQ__O                     
00014df0  ti_sysbios_family_arm_m3_Hwi_Object__DESC__C                         
00014e10  xdc_runtime_Text_nameEmpty__C                                        
00014e14  ti_sysbios_family_arm_m3_Hwi_Object__count__C                        
00014e18  xdc_runtime_SysCallback_abortFxn__C                                  
00014e1c  ti_sysbios_knl_Task_defaultStackHeap__C                              
00014e20  ti_sysbios_family_arm_m3_Hwi_ccr__C                                  
00014e24  ti_sysbios_heaps_HeapMem_E_memory__C                                 
00014e28  ti_sysbios_knl_Task_Object__count__C                                 
00014e2c  ti_sysbios_heaps_HeapMem_Object__DESC__C                             
00014e4c  xdc_runtime_Text_nameUnknown__C                                      
00014e50  xdc_runtime_Memory_defaultHeapInstance__C                            
00014e54  ti_sysbios_knl_Mailbox_Instance_State_freeQue__O                     
00014e58  xdc_runtime_Startup_sfxnTab__C                                       
00015028  macIdleSt                                                            
00015096  macScanningSt                                                        
00015104  resourceDB                                                           
00015158  uartCC26XXHWAttrs                                                    
000151c4  BoardGpioInitTable                                                   
00015238  ROM_externFuncPtrs                                                   
0001527c  spiCC26XXDMAHWAttrs                                                  
000152bc  NVSCC26XX_fxnTable                                                   
000152e4  NVSSPI25X_fxnTable                                                   
0001530c  UARTCC26XX_fxnTable                                                  
00015334  UART_defaultParams                                                   
00015358  nvsSPI25XHWAttrs                                                     
0001537c  ti_sysbios_gates_GateMutexPri_Module__FXNS__C                        
000153a0  xdc_runtime_Startup_sfxnTab__A                                       
000153c4  SPI_defaultParams                                                    
000153e4  ti_sysbios_gates_GateMutexPri_Object__DESC__C                        
00015420  NVS_config                                                           
00015438  SPICC26XXDMA_fxnTable                                                
00015450  SPI_config                                                           
00015468  UART_config                                                          
000154b0  ti_sysbios_gates_GateMutexPri_Object__PARAMS__C                      
000154c8  GPIOCC26XX_config                                                    
000154f0  msacbackSizeTable                                                    
00015504  xdc_runtime_Startup_sfxnRts__A                                       
00015517  xdc_runtime_Text_charTab__A                                          
00015528  AESCCM_defaultParams                                                 
00015538  ADCBuf_count                                                         
00015539  ADC_count                                                            
0001553a  ECDH_count                                                           
0001553b  ECDSA_count                                                          
0001553c  ECJPAKE_count                                                        
0001553d  SHA2_count                                                           
0001553e  AESCCM_count                                                         
0001553f  AESECB_count                                                         
00015540  Display_count                                                        
00015541  I2C_count                                                            
00015542  NVS_count                                                            
00015543  PWM_count                                                            
00015544  SD_count                                                             
00015545  SPI_count                                                            
00015546  UART_count                                                           
00015547  Watchdog_count                                                       
00015548  PowerCC26X2_config                                                   
00015568  outPinTypes                                                          
00015584  RFCC26XX_hwAttrs                                                     
00015590  inPinTypes                                                           
0001559c  outPinStrengths                                                      
000155a8  xdc_runtime_Startup_firstFxns__A                                     
000155cc  AESCCM_config                                                        
000155d4  PINCC26XX_hwAttrs                                                    
000155dc  UDMACC26XX_config                                                    
000155e4  aesccmCC26XXHWAttrs                                                  
0001560c  nvsCC26xxHWAttrs                                                     
0001561c  udmaHWAttrs                                                          
0001563c  NVS_defaultParams                                                    
00015644  tasksArr                                                             
00015648  ti_sysbios_family_arm_cc26xx_Timer_funcHookCH1__C                    
0001564c  ti_sysbios_family_arm_cc26xx_Timer_funcHookCH2__C                    
00015650  ti_sysbios_family_arm_m3_Hwi_swiDisable__C                           
00015654  ti_sysbios_family_arm_m3_Hwi_swiRestoreHwi__C                        
00015658  ti_sysbios_gates_GateMutexPri_Instance_State_pendQ__O                
0001565c  ti_sysbios_knl_Clock_tickPeriod__C                                   
00015660  ti_sysbios_knl_Idle_funcList__A                                      
00015664  xdc_runtime_SysCallback_flushFxn__C                                  
00015668  xdc_runtime_SysCallback_putchFxn__C                                  
0001566c  xdc_runtime_SysCallback_readyFxn__C                                  
00015de0  rfDriverTable                                                        
00015e48  txPowerTable_ieee                                                    
00015e98  macCryptoDriverTable                                                 
00015ed8  rfPatchTable_ieee                                                    
00015ee8  txPwrTbl_ieee                                                        
00015eec  loDivider_ieee                                                       
00015ef0  __TI_static_base__                                                   
00016204  __TI_Handler_Table_Base                                              
00016210  __TI_Handler_Table_Limit                                             
00016250  __TI_CINIT_Base                                                      
00016298  __TI_CINIT_Limit                                                     
000561e9  icall_directAPI                                                      
0005627d  ICall_heapMalloc                                                     
000562f9  ICall_createRemoteTasks                                              
000567b5  ICall_searchServiceEntity                                            
00056879  ICall_heapFree                                                       
00056987  ICall_enterCSImpl                                                    
000569db  ICall_leaveCSImpl                                                    
00056ae5  startup_entry                                                        
00056ec5  ICallPlatform_pwrUpdActivityCounter                                  
00056f39  ICallPlatform_pwrConfigACAction                                      
00056fa9  ICallPlatform_pwrRegisterNotify                                      
00057035  ICallPlatform_pwrDispense                                            
0005704d  ICallPlatform_pwrRequire                                             
00057065  ICallPlatform_pwrGetXOSCStartupTime                                  
00057075  ICallPlatform_pwrGetTransitionState                                  
00057083  ICallPlatform_pwrIsStableXOSCHF                                      
00057091  ICallPlatform_pwrSwitchXOSCHF                                        
0005709d  osal_start_system                                                    
00057369  osal_set_event                                                       
0005740d  osal_msg_receive                                                     
000574f9  osal_msg_send                                                        
000575d5  osal_msg_extract                                                     
00057611  osal_msg_dequeue                                                     
0005767d  osal_msg_enqueue                                                     
000576b1  osal_alien2proxy                                                     
0005770d  osal_msg_allocate                                                    
00057771  osal_memcmp                                                          
00057791  osal_msg_push                                                        
000577e9  osal_memcpy                                                          
00057801  osal_msg_deallocate                                                  
00057815  osal_self                                                            
00057821  osal_memset                                                          
00057825  osal_pwrmgr_task_state                                               
000578bd  osal_mem_alloc                                                       
000578e5  osal_mem_free                                                        
00057905  osal_next_timeout                                                    
00057949  HalTRNG_GetTRNG                                                      
00057985  HalTRNG_InitTRNG                                                     
00057a45  Board_Led_control                                                    
00057af7  Util_bufferUint32                                                    
00057b31  Util_parseUint32                                                     
00057b47  Util_bufferUint16                                                    
00057b53  Util_parseUint16                                                     
00057b5f  Util_breakUint32                                                     
00057b69  Timer_construct                                                      
00057bb9  Timer_isActive                                                       
00057bd1  Timer_start                                                          
00057bd5  Timer_stop                                                           
00057bd9  sAddrCmp                                                             
00057c05  sAddrExtCmp                                                          
00057c21  sAddrCpy                                                             
00057c35  sAddrExtCpy                                                          
00057fa8  __ccfg                                                               
10039000  ti_sysbios_rom_cortexm_cc26xx_agama_CC26xx_REVISION__C               
10039005  ti_sysbios_knl_Semaphore_pend__E                                     
100390f9  ti_sysbios_knl_Event_pend__E                                         
100391d9  ti_sysbios_knl_Task_Instance_init__E                                 
100392ad  ti_sysbios_family_arm_m3_Hwi_postInit__I                             
10039365  ti_sysbios_knl_Mailbox_Instance_init__E                              
10039415  ti_sysbios_family_arm_cc26xx_Timer_periodicStub__E                   
100394b5  ti_sysbios_family_arm_m3_Hwi_Instance_init__E                        
10039551  ti_sysbios_knl_Task_Instance_finalize__E                             
100395e5  ti_sysbios_family_arm_m3_Hwi_initNVIC__E                             
10039675  ti_sysbios_knl_Clock_startI__E                                       
100396fd  ti_sysbios_knl_Swi_restoreHwi__E                                     
10039781  ti_sysbios_knl_Task_postInit__I                                      
10039801  ti_sysbios_knl_Clock_workFunc__E                                     
10039879  ti_sysbios_knl_Clock_walkQueueDynamic__E                             
100398ed  ti_sysbios_knl_Task_startCore__E                                     
10039961  ti_sysbios_family_arm_m3_Hwi_Object__create__S                       
100399d1  ti_sysbios_knl_Semaphore_post__E                                     
10039a41  ti_sysbios_knl_Swi_run__I                                            
10039ab1  ti_sysbios_knl_Task_schedule__I                                      
10039b21  ti_sysbios_knl_Task_sleep__E                                         
10039b91  ti_sysbios_heaps_HeapMem_allocUnprotected__E                         
10039bff  ti_sysbios_BIOS_linkedWithIncorrectBootLibrary__E                    
10039c01  ti_sysbios_family_arm_m3_Hwi_Instance_finalize__E                    
10039c6d  ti_sysbios_family_arm_m3_Hwi_dispatchC__I                            
10039cd9  ti_sysbios_knl_Mailbox_post__E                                       
10039d43  ti_sysbios_gates_GateHwi_Instance_init__E                            
10039d45  ti_sysbios_family_arm_m3_Hwi_create                                  
10039dad  ti_sysbios_hal_Hwi_create                                            
10039e15  ti_sysbios_knl_Event_post__E                                         
10039e7d  ti_sysbios_knl_Mailbox_create                                        
10039ee5  ti_sysbios_knl_Semaphore_Instance_init__E                            
10039f49  ti_sysbios_knl_Swi_Instance_init__E                                  
10039fad  ti_sysbios_family_arm_m3_Hwi_construct                               
1003a00d  ti_sysbios_knl_Mailbox_construct                                     
1003a06d  ti_sysbios_knl_Swi_create                                            
1003a0cd  ti_sysbios_knl_Swi_runLoop__I                                        
1003a12d  ti_sysbios_knl_Swi_schedule__I                                       
1003a18d  ti_sysbios_knl_Task_Module_startup__E                                
1003a1ed  ti_sysbios_knl_Task_create                                           
1003a24d  ti_sysbios_heaps_HeapMem_alloc__E                                    
1003a2a9  ti_sysbios_knl_Mailbox_Instance_finalize__E                          
1003a305  ti_sysbios_family_arm_m3_Hwi_Module_startup__E                       
1003a35d  ti_sysbios_heaps_HeapMem_freeUnprotected__E                          
1003a3b5  ti_sysbios_knl_Task_construct                                        
1003a40d  ti_sysbios_knl_Mailbox_pend__E                                       
1003a463  ti_sysbios_knl_Clock_logTick__E                                      
1003a465  ti_sysbios_knl_Swi_construct                                         
1003a4b9  ti_sysbios_knl_Task_allBlockedFunction__I                            
1003a509  ti_sysbios_heaps_HeapMem_getStats__E                                 
1003a555  ti_sysbios_knl_Task_yield__E                                         
1003a5a1  ti_sysbios_heaps_HeapMem_Instance_init__E                            
1003a5e9  ti_sysbios_knl_Swi_post__E                                           
1003a631  ti_sysbios_knl_Task_blockI__E                                        
1003a679  ti_sysbios_family_arm_m3_Hwi_disableInterrupt__E                     
1003a679  ti_sysbios_hal_Hwi_HwiProxy_disableInterrupt__E                      
1003a679  ti_sysbios_hal_Hwi_HwiProxy_disableInterrupt__E__mangled__           
1003a679  ti_sysbios_hal_Hwi_disableInterrupt__E                               
1003a679  ti_sysbios_hal_Hwi_disableInterrupt__E                               
1003a6bd  ti_sysbios_family_arm_m3_Hwi_enableInterrupt__E                      
1003a6bd  ti_sysbios_hal_Hwi_HwiProxy_enableInterrupt__E                       
1003a6bd  ti_sysbios_hal_Hwi_HwiProxy_enableInterrupt__E__mangled__            
1003a6bd  ti_sysbios_hal_Hwi_enableInterrupt__E                                
1003a6bd  ti_sysbios_hal_Hwi_enableInterrupt__E                                
1003a701  ti_sysbios_family_arm_m3_Hwi_getStackInfo__E                         
1003a701  ti_sysbios_hal_Hwi_HwiProxy_getStackInfo__E                          
1003a701  ti_sysbios_hal_Hwi_HwiProxy_getStackInfo__E__mangled__               
1003a701  ti_sysbios_hal_Hwi_getStackInfo__E                                   
1003a701  ti_sysbios_hal_Hwi_getStackInfo__E                                   
1003a745  ti_sysbios_knl_Mailbox_Module_startup__E                             
1003a789  ti_sysbios_family_arm_m3_TaskSupport_start__E                        
1003a789  ti_sysbios_knl_Task_SupportProxy_start__E                            
1003a789  ti_sysbios_knl_Task_SupportProxy_start__E__mangled__                 
1003a7c5  ti_sysbios_knl_Clock_create                                          
1003a801  ti_sysbios_knl_Semaphore_create                                      
1003a83d  SwiP_restore                                                         
1003a83d  ti_sysbios_knl_Swi_restore__E                                        
1003a879  ti_sysbios_knl_Task_exit__E                                          
1003a8b3  ti_sysbios_knl_Clock_triggerFunc__I                                  
1003a8b5  ti_sysbios_heaps_HeapMem_free__E                                     
1003a8ed  ti_sysbios_knl_Clock_construct                                       
1003a925  ClockP_getSystemTicks                                                
1003a925  ti_sysbios_knl_Clock_getTicks__E                                     
1003a95d  ti_sysbios_knl_Semaphore_construct                                   
1003a995  ti_sysbios_knl_Task_processVitalTaskFlag__I                          
1003a9cd  ti_sysbios_family_arm_cc26xx_Timer_startup__E                        
1003a9cd  ti_sysbios_knl_Clock_TimerProxy_startup__E                           
1003a9cd  ti_sysbios_knl_Clock_TimerProxy_startup__E__mangled__                
1003aa01  ti_sysbios_gates_GateMutex_Object__create__S                         
1003aa35  ti_sysbios_gates_GateMutex_create                                    
1003aa69  ti_sysbios_heaps_HeapMem_Object__create__S                           
1003aa9d  ti_sysbios_heaps_HeapMem_init__I                                     
1003aad1  ti_sysbios_knl_Clock_Instance_init__E                                
1003ab05  ti_sysbios_knl_Event_create                                          
1003ab39  ti_sysbios_knl_Task_unblockI__E                                      
1003ab6d  ti_sysbios_family_arm_m3_Hwi_excHandler__I                           
1003ab9d  ti_sysbios_gates_GateMutex_construct                                 
1003abcd  ti_sysbios_knl_Event_construct                                       
1003abfd  ti_sysbios_knl_Queue_construct                                       
1003ac2d  ti_sysbios_knl_Queue_create                                          
1003ac5d  ti_sysbios_knl_Task_restore__E                                       
1003ac8d  ti_sysbios_family_arm_cc26xx_Timer_Module_startup__E                 
1003acb9  ti_sysbios_family_arm_cc26xx_Timer_postInit__I                       
1003ace5  ti_sysbios_family_arm_cc26xx_TimestampProvider_get64__E              
1003ace5  xdc_runtime_Timestamp_SupportProxy_get64__E                          
1003ace5  xdc_runtime_Timestamp_SupportProxy_get64__E__mangled__               
1003ace5  xdc_runtime_Timestamp_get64__E                                       
1003ace5  xdc_runtime_Timestamp_get64__E                                       
1003ad11  ti_sysbios_gates_GateHwi_Object__create__S                           
1003ad3d  ti_sysbios_hal_Hwi_initStack                                         
1003ad69  ti_sysbios_knl_Event_pendTimeout__I                                  
1003ad95  ti_sysbios_knl_Semaphore_pendTimeout__I                              
1003adc1  ti_sysbios_family_arm_cc26xx_Timer_Module__startupDone__S            
1003adc1  ti_sysbios_knl_Clock_TimerProxy_Module__startupDone__S               
1003adc1  ti_sysbios_knl_Clock_TimerProxy_Module__startupDone__S__mangled__    
1003ade9  ti_sysbios_family_arm_m3_Hwi_Module__startupDone__S                  
1003ade9  ti_sysbios_hal_Hwi_HwiProxy_Module__startupDone__S                   
1003ade9  ti_sysbios_hal_Hwi_HwiProxy_Module__startupDone__S__mangled__        
1003ae11  ti_sysbios_family_arm_m3_Hwi_Object__delete__S                       
1003ae11  ti_sysbios_hal_Hwi_HwiProxy_Object__delete__S                        
1003ae39  ti_sysbios_family_arm_m3_Hwi_Object__get__S                          
1003ae61  ti_sysbios_BIOS_RtsGateProxy_Object__delete__S                       
1003ae61  ti_sysbios_gates_GateMutex_Object__delete__S                         
1003ae61  ti_sysbios_heaps_HeapMem_Module_GateProxy_Object__delete__S          
1003ae89  ti_sysbios_gates_GateMutex_enter__E                                  
1003aeb1  ti_sysbios_hal_Hwi_Object__delete__S                                 
1003aed9  ti_sysbios_heaps_HeapMem_Object__get__S                              
1003af01  ti_sysbios_knl_Clock_Object__delete__S                               
1003af29  ti_sysbios_knl_Clock_stop__E                                         
1003af51  ti_sysbios_knl_Mailbox_Object__delete__S                             
1003af79  ti_sysbios_knl_Mailbox_Object__get__S                                
1003afa1  ti_sysbios_knl_Semaphore_Object__delete__S                           
1003afc9  ti_sysbios_knl_Task_Object__delete__S                                
1003aff1  ti_sysbios_knl_Task_restoreHwi__E                                    
1003b019  ti_sysbios_hal_Hwi_Instance_init__E                                  
1003b03f  ti_sysbios_knl_Mailbox_postInit__I                                   
1003b065  ti_sysbios_family_arm_cc26xx_TimestampProvider_Module_startup__E     
1003b089  ti_sysbios_family_arm_m3_Hwi_Object__destruct__S                     
1003b0ad  ti_sysbios_gates_GateHwi_Handle__label__S                            
1003b0ad  xdc_runtime_Main_Module_GateProxy_Handle__label__S                   
1003b0ad  xdc_runtime_System_Module_GateProxy_Handle__label__S                 
1003b0ad  xdc_runtime_System_Module_GateProxy_Handle__label__S__mangled__      
1003b0d1  ti_sysbios_gates_GateHwi_Object__delete__S                           
1003b0d1  xdc_runtime_System_Module_GateProxy_Object__delete__S                
1003b0f5  ti_sysbios_BIOS_RtsGateProxy_Handle__label__S                        
1003b0f5  ti_sysbios_BIOS_RtsGateProxy_Handle__label__S__mangled__             
1003b0f5  ti_sysbios_gates_GateMutex_Handle__label__S                          
1003b0f5  ti_sysbios_heaps_HeapMem_Module_GateProxy_Handle__label__S           
1003b0f5  ti_sysbios_heaps_HeapMem_Module_GateProxy_Handle__label__S__mangled__
1003b119  ti_sysbios_gates_GateMutex_Object__destruct__S                       
1003b13d  ti_sysbios_heaps_HeapMem_Handle__label__S                            
1003b13d  xdc_runtime_Memory_HeapProxy_Handle__label__S                        
1003b13d  xdc_runtime_Memory_HeapProxy_Handle__label__S__mangled__             
1003b161  ti_sysbios_heaps_HeapMem_Object__delete__S                           
1003b161  xdc_runtime_Memory_HeapProxy_Object__delete__S                       
1003b185  ti_sysbios_knl_Clock_Module_startup__E                               
1003b1a9  ti_sysbios_knl_Clock_Object__destruct__S                             
1003b1cd  ti_sysbios_knl_Clock_addI__E                                         
1003b1f1  ti_sysbios_knl_Event_Object__delete__S                               
1003b215  ti_sysbios_knl_Idle_run__E                                           
1003b239  ti_sysbios_knl_Mailbox_Object__destruct__S                           
1003b25d  ti_sysbios_knl_Queue_Object__delete__S                               
1003b281  ti_sysbios_knl_Semaphore_Instance_finalize__E                        
1003b2a5  ti_sysbios_knl_Semaphore_Object__destruct__S                         
1003b2c9  ti_sysbios_knl_Swi_Module_startup__E                                 
1003b2ed  ti_sysbios_knl_Swi_Object__delete__S                                 
1003b311  ti_sysbios_knl_Swi_Object__get__S                                    
1003b335  ti_sysbios_knl_Task_Object__destruct__S                              
1003b359  ti_sysbios_knl_Task_Object__get__S                                   
1003b37d  ti_sysbios_knl_Task_enter__I                                         
1003b3a1  ti_sysbios_knl_Clock_scheduleNextTick__E                             
1003b3c1  ti_sysbios_knl_Event_Object__destruct__S                             
1003b3e1  ti_sysbios_knl_Event_checkEvents__I                                  
1003b401  ti_sysbios_knl_Queue_Object__destruct__S                             
1003b421  ti_sysbios_knl_Queue_Object__get__S                                  
1003b441  ti_sysbios_knl_Swi_Object__destruct__S                               
1003b461  ti_sysbios_family_arm_m3_Hwi_plug__E                                 
1003b47d  ti_sysbios_family_arm_m3_Hwi_setPriority__E                          
1003b499  ti_sysbios_family_arm_m3_Hwi_switchFromBootStack__E                  
1003b499  ti_sysbios_hal_Hwi_HwiProxy_switchFromBootStack__E                   
1003b499  ti_sysbios_hal_Hwi_HwiProxy_switchFromBootStack__E__mangled__        
1003b499  ti_sysbios_hal_Hwi_switchFromBootStack__E                            
1003b499  ti_sysbios_hal_Hwi_switchFromBootStack__E                            
1003b4b5  ti_sysbios_hal_Hwi_HwiProxy_create                                   
1003b4d1  ti_sysbios_knl_Queue_get__E                                          
1003b4ed  ti_sysbios_knl_Queue_put__E                                          
1003b509  ti_sysbios_knl_Task_sleepTimeout__I                                  
1003b523  ti_sysbios_knl_Swi_Instance_finalize__E                              
1003b525  ti_sysbios_knl_Swi_disable__E                                        
1003b53d  ti_sysbios_knl_Task_disable__E                                       
1003b555  ti_sysbios_knl_Task_unblock__E                                       
1003b56d  ti_sysbios_gates_GateMutex_Instance_init__E                          
1003b583  ti_sysbios_knl_Clock_Instance_finalize__E                            
1003b599  ti_sysbios_knl_Clock_start__E                                        
1003b5b1  ti_sysbios_BIOS_getCpuFreq__E                                        
1003b5c5  ti_sysbios_BIOS_setThreadType__E                                     
1003b5d9  ti_sysbios_knl_Swi_enabled__E                                        
1003b5ed  ti_sysbios_hal_Hwi_Module_startup__E                                 
1003b5ff  ti_sysbios_knl_Event_sync__E                                         
1003b611  ti_sysbios_BIOS_exit__E                                              
1003b621  ti_sysbios_BIOS_start__E                                             
1003b631  ti_sysbios_family_arm_m3_TaskSupport_getStackAlignment__E            
1003b631  ti_sysbios_knl_Task_SupportProxy_getStackAlignment__E                
1003b631  ti_sysbios_knl_Task_SupportProxy_getStackAlignment__E__mangled__     
1003b641  ti_sysbios_hal_Hwi_HwiProxy_Object__create__S                        
1003b651  ti_sysbios_knl_Clock_TimerProxy_getCurrentTick__E                    
1003b661  ti_sysbios_knl_Clock_TimerProxy_getMaxTicks__E                       
1003b671  ti_sysbios_knl_Clock_TimerProxy_setNextTick__E                       
1003b681  ti_sysbios_knl_Task_self__E                                          
1003b691  ti_sysbios_gates_GateMutex_leave__E                                  
1003b69f  ti_sysbios_heaps_HeapMem_restore__E                                  
1003b6ad  ti_sysbios_knl_Queue_empty__E                                        
1003b6bb  ti_sysbios_knl_Queue_remove__E                                       
1003b6c9  ti_sysbios_family_arm_cc26xx_TimestampProvider_getFreq__E            
1003b6c9  xdc_runtime_Timestamp_SupportProxy_getFreq__E                        
1003b6c9  xdc_runtime_Timestamp_SupportProxy_getFreq__E__mangled__             
1003b6c9  xdc_runtime_Timestamp_getFreq__E                                     
1003b6c9  xdc_runtime_Timestamp_getFreq__E                                     
1003b6d5  ti_sysbios_family_arm_m3_Hwi_Params__init__S                         
1003b6d5  ti_sysbios_hal_Hwi_HwiProxy_Params__init__S                          
1003b6d5  ti_sysbios_hal_Hwi_HwiProxy_Params__init__S__mangled__               
1003b6e1  ti_sysbios_family_arm_m3_Hwi_disableFxn__E                           
1003b6ed  ti_sysbios_family_arm_m3_Hwi_enableFxn__E                            
1003b6f9  ti_sysbios_gates_GateHwi_enter__E                                    
1003b705  ti_sysbios_BIOS_RtsGateProxy_Params__init__S                         
1003b705  ti_sysbios_BIOS_RtsGateProxy_Params__init__S__mangled__              
1003b705  ti_sysbios_gates_GateMutex_Params__init__S                           
1003b705  ti_sysbios_heaps_HeapMem_Module_GateProxy_Params__init__S            
1003b705  ti_sysbios_heaps_HeapMem_Module_GateProxy_Params__init__S__mangled__ 
1003b711  ti_sysbios_knl_Clock_Params__init__S                                 
1003b71d  ti_sysbios_knl_Clock_getTimerHandle__E                               
1003b729  ti_sysbios_knl_Event_Params__init__S                                 
1003b735  ti_sysbios_knl_Mailbox_Params__init__S                               
1003b741  ti_sysbios_knl_Queue_dequeue__E                                      
1003b74d  ti_sysbios_knl_Queue_enqueue__E                                      
1003b759  ti_sysbios_knl_Semaphore_Params__init__S                             
1003b765  ti_sysbios_knl_Swi_Params__init__S                                   
1003b771  ti_sysbios_knl_Task_Params__init__S                                  
1003b77d  ti_sysbios_hal_Hwi_Instance_finalize__E                              
1003b787  ti_sysbios_knl_Event_Instance_init__E                                
1003b791  ti_sysbios_family_arm_m3_Hwi_doSwiRestore__I                         
1003b799  ti_sysbios_family_arm_m3_Hwi_startup__E                              
1003b799  ti_sysbios_hal_Hwi_HwiProxy_startup__E                               
1003b799  ti_sysbios_hal_Hwi_HwiProxy_startup__E__mangled__                    
1003b799  ti_sysbios_hal_Hwi_startup__E                                        
1003b799  ti_sysbios_hal_Hwi_startup__E                                        
1003b7a1  ti_sysbios_knl_Idle_loop__E                                          
1003b7a9  ti_sysbios_family_arm_m3_Hwi_doTaskRestore__I                        
1003b7af  HwiP_restore                                                         
1003b7af  ti_sysbios_family_arm_m3_Hwi_restoreFxn__E                           
1003b7b5  ti_sysbios_gates_GateHwi_leave__E                                    
1003b7bb  ti_sysbios_gates_GateMutex_Instance_finalize__E                      
1003b7c1  ti_sysbios_heaps_HeapMem_isBlocking__E                               
1003b7c7  ti_sysbios_knl_Queue_Instance_init__E                                
1003b7cd  ti_sysbios_knl_Queue_elemClear__E                                    
1003b7d3  ti_sysbios_knl_Swi_startup__E                                        
1003b7d9  ti_sysbios_knl_Task_enable__E                                        
1003b7df  ti_sysbios_BIOS_RtsGateProxy_enter__E                                
1003b7e3  ti_sysbios_BIOS_RtsGateProxy_leave__E                                
1003b7e7  ti_sysbios_family_arm_cc26xx_Timer_getExpiredTicks__E                
1003b7eb  ti_sysbios_family_arm_cc26xx_Timer_getPeriod__E                      
1003b7ef  ti_sysbios_family_arm_cc26xx_Timer_setPeriod__E                      
1003b7f3  ti_sysbios_family_arm_m3_Hwi_delete                                  
1003b7f7  ti_sysbios_family_arm_m3_Hwi_destruct                                
1003b7fb  ti_sysbios_family_arm_m3_TaskSupport_Module__startupDone__S          
1003b7fb  ti_sysbios_knl_Task_SupportProxy_Module__startupDone__S              
1003b7fb  ti_sysbios_knl_Task_SupportProxy_Module__startupDone__S__mangled__   
1003b7ff  ti_sysbios_gates_GateHwi_query__E                                    
1003b7ff  xdc_runtime_Main_Module_GateProxy_query__E                           
1003b7ff  xdc_runtime_System_Module_GateProxy_query__E                         
1003b7ff  xdc_runtime_System_Module_GateProxy_query__E__mangled__              
1003b803  ti_sysbios_gates_GateMutex_delete                                    
1003b807  ti_sysbios_gates_GateMutex_destruct                                  
1003b80b  ti_sysbios_BIOS_RtsGateProxy_query__E                                
1003b80b  ti_sysbios_BIOS_RtsGateProxy_query__E__mangled__                     
1003b80b  ti_sysbios_gates_GateMutex_query__E                                  
1003b80b  ti_sysbios_heaps_HeapMem_Module_GateProxy_query__E                   
1003b80b  ti_sysbios_heaps_HeapMem_Module_GateProxy_query__E__mangled__        
1003b80f  ti_sysbios_hal_Hwi_HwiProxy_delete                                   
1003b813  ti_sysbios_hal_Hwi_delete                                            
1003b817  ti_sysbios_heaps_HeapMem_Module_GateProxy_enter__E                   
1003b81b  ti_sysbios_heaps_HeapMem_Module_GateProxy_leave__E                   
1003b81f  ti_sysbios_knl_Clock_TimerProxy_getExpiredTicks__E                   
1003b823  ti_sysbios_knl_Clock_TimerProxy_getPeriod__E                         
1003b827  ti_sysbios_knl_Clock_delete                                          
1003b82b  ti_sysbios_knl_Clock_destruct                                        
1003b82f  ti_sysbios_knl_Clock_removeI__E                                      
1003b833  ti_sysbios_knl_Clock_setTimeout__E                                   
1003b837  ti_sysbios_knl_Event_delete                                          
1003b83b  ti_sysbios_knl_Event_destruct                                        
1003b83f  ti_sysbios_knl_Mailbox_delete                                        
1003b843  ti_sysbios_knl_Mailbox_destruct                                      
1003b847  ti_sysbios_knl_Queue_delete                                          
1003b84b  ti_sysbios_knl_Queue_destruct                                        
1003b84f  ti_sysbios_knl_Queue_head__E                                         
1003b853  ti_sysbios_knl_Queue_next__E                                         
1003b857  ti_sysbios_knl_Semaphore_delete                                      
1003b85b  ti_sysbios_knl_Semaphore_destruct                                    
1003b85f  ti_sysbios_knl_Swi_delete                                            
1003b863  ti_sysbios_knl_Swi_destruct                                          
1003b867  ti_sysbios_knl_Swi_postInit__I                                       
1003b86b  ti_sysbios_knl_Task_delete                                           
1003b86f  ti_sysbios_knl_Task_destruct                                         
1003b873  ti_sysbios_knl_Task_startup__E                                       
1003b879  xdc_runtime_Startup_startMods__I                                     
1003ba31  xdc_runtime_Core_createObject__I                                     
1003bab1  xdc_runtime_Memory_alloc__E                                          
1003bb21  xdc_runtime_Core_deleteObject__I                                     
1003bb7f  xdc_runtime_Error_policySpin__E                                      
1003bb81  xdc_runtime_Assert_raise__I                                          
1003bbd5  xdc_runtime_Startup_exec__E                                          
1003bc29  xdc_runtime_System_atexit__E                                         
1003bc75  xdc_runtime_Core_assignParams__I                                     
1003bcbd  xdc_runtime_Core_constructObject__I                                  
1003bd4d  xdc_runtime_System_processAtExit__E                                  
1003bd8d  xdc_runtime_Core_assignLabel__I                                      
1003bdbd  xdc_runtime_Text_cordText__E                                         
1003bde9  xdc_runtime_System_abort__E                                          
1003be11  xdc_runtime_Error_raiseX__E                                          
1003be31  xdc_runtime_Error_check__E                                           
1003be4d  xdc_runtime_Memory_valloc__E                                         
1003be69  xdc_runtime_System_exit__E                                           
1003be85  xdc_runtime_Text_ropeText__E                                         
1003bea1  xdc_runtime_Core_destructObject__I                                   
1003beb9  xdc_runtime_Memory_free__E                                           
1003becd  xdc_runtime_SysCallback_abort__E                                     
1003becd  xdc_runtime_System_SupportProxy_abort__E                             
1003bee1  xdc_runtime_SysCallback_exit__E                                      
1003bee1  xdc_runtime_System_SupportProxy_exit__E                              
1003bef5  xdc_runtime_Memory_getMaxDefaultTypeAlign__E                         
1003bf35  xdc_runtime_Timestamp_SupportProxy_get32__E                          
1003bf35  xdc_runtime_Timestamp_get32__E                                       
1003bf35  xdc_runtime_Timestamp_get32__E                                       
1003bf51  xdc_runtime_Memory_calloc__E                                         
1003bf5d  xdc_runtime_Startup_rtsDone__E                                       
1003bf69  xdc_runtime_Memory_HeapProxy_alloc__E                                
1003bf73  xdc_runtime_Memory_HeapProxy_free__E                                 
1003bf7d  xdc_runtime_Gate_leaveSystem__E                                      
1003bf83  xdc_runtime_System_Module_startup__E                                 
1003bf89  xdc_runtime_Gate_enterSystem__E                                      
1003bf8d  xdc_runtime_SysCallback_Module__startupDone__S                       
1003bf8d  xdc_runtime_System_SupportProxy_Module__startupDone__S               
1003bf91  xdc_runtime_System_Module_GateProxy_enter__E                         
1003bf95  xdc_runtime_System_Module_GateProxy_leave__E                         
1003bf99  xdc_runtime_System_abortSpin__E                                      
1003bf9b  xdc_runtime_System_exitSpin__E                                       
1003bf9d  ti_sysbios_family_arm_m3_Hwi_dispatch__I                             
1003c095  ti_sysbios_family_arm_m3_TaskSupport_buildTaskStack                  
1003c121  ti_sysbios_family_arm_m3_Hwi_initStacks__E                           
1003c179  ti_sysbios_family_arm_m3_Hwi_pendSV__I                               
1003c19d  ti_sysbios_family_arm_m3_Hwi_return                                  
1003c1a1  ti_sysbios_family_arm_m3_Hwi_excHandlerAsm__I                        
1003c1c1  ti_sysbios_family_xxx_Hwi_switchAndRunFunc                           
1003c1df  ti_sysbios_family_arm_m3_TaskSupport_swap__E                         
1003c1df  ti_sysbios_knl_Task_SupportProxy_swap__E                             
1003c1df  ti_sysbios_knl_Task_SupportProxy_swap__E__mangled__                  
1003c1eb  ti_sysbios_knl_Task_swapReturn                                       
1003c1f7  ti_sysbios_family_arm_m3_TaskSupport_glue                            
1003c208  ti_sysbios_knl_Task_Object__PARAMS__C                                
1003c244  ti_sysbios_knl_Mailbox_Object__PARAMS__C                             
1003c278  ti_sysbios_family_arm_m3_Hwi_Object__PARAMS__C                       
1003c2a8  ti_sysbios_hal_Hwi_Object__PARAMS__C                                 
1003c2d4  ti_sysbios_knl_Swi_Object__PARAMS__C                                 
1003c2fc  ti_sysbios_heaps_HeapMem_Object__PARAMS__C                           
1003c320  ti_sysbios_knl_Clock_Object__PARAMS__C                               
1003c344  ti_sysbios_knl_Semaphore_Object__PARAMS__C                           
1003c368  ti_sysbios_gates_GateHwi_Object__PARAMS__C                           
1003c380  ti_sysbios_gates_GateMutex_Object__PARAMS__C                         
1003c398  ti_sysbios_knl_Event_Object__PARAMS__C                               
1003c3b0  ti_sysbios_knl_Queue_Object__PARAMS__C                               
20000000  ti_sysbios_family_arm_m3_Hwi_ramVectors                              
20000100  xdcRomConstPtr                                                       
20000104  xdcRomExternFuncPtr                                                  
20000108  xdcRomStatePtr                                                       
20001920  macTaskId                                                            
20001921  macMgmt                                                              
20001922  macPanCoordinator                                                    
20001923  csmPhy                                                               
20001924  pMacDataTx                                                           
20001928  macDataTxIndirect                                                    
2000192c  macDataRequeueIndirect                                               
20001930  macDataRxBeaconCritical                                              
20001934  macDataTxBeaconComplete                                              
20001938  macDataSetSched                                                      
2000193c  macDataCheckSched                                                    
20001940  macDataCheckTxTime                                                   
20001944  macDataBeaconRequeue                                                 
20001948  timerUnalignedQ                                                      
2000194c  timerAlignedQ                                                        
20001950  macTimerRollover                                                     
20001954  macTimerNewRollover                                                  
20001958  macTimerActive                                                       
2000195c  AESCCM_handle                                                        
20001960  macCryptoDrvTblPtr                                                   
20001964  macBeaconCoordAction1                                                
2000196c  macCoordAction1                                                      
20001974  macMain                                                              
20001980  macBeaconDeviceAction                                                
20001990  macCoordAction3                                                      
200019a0  macData                                                              
200019b0  macDataTxDelay                                                       
200019c0  macDeviceAction2                                                     
200019d4  macStateTbl                                                          
200019e8  macMgmtAction2                                                       
200019fc  macScanAction                                                        
20001a14  macCoordAction2                                                      
20001a30  macReset                                                             
20001a4c  macBeaconMargin                                                      
20001a6c  macBeacon                                                            
20001a8c  macActionSet                                                         
20001ab0  macMgmtAction1                                                       
20001ad8  macCoord                                                             
20001b04  macDevice                                                            
20001b30  macBeaconDevice                                                      
20001b64  macBeaconPayload                                                     
20001b98  macDeviceAction1                                                     
20001bd0  macBeaconCoord                                                       
20001c0c  macSecurityPib                                                       
20001c4c  macScan                                                              
20001ca0  fhObject                                                             
20001d0c  macPib                                                               
20001d94  enhancedAckBuf                                                       
20001e90  macUser0Cfg                                                          
20001ec0  myTask                                                               
20001f10  Main_user1Cfg                                                        
20001f74  myTaskStack                                                          
20002294  npiAppEntityID                                                       
2000230c  npiTaskStack                                                         
20002944  ROM_stateStruct                                                      
20002944  ti_sysbios_knl_Clock_Module__state__V                                
20002970  ti_sysbios_family_arm_cc26xx_TimestampProvider_Module__state__V      
20002974  xdc_runtime_Startup_Module__state__V                                 
2000297c  ti_sysbios_BIOS_Module__state__V                                     
200029a0  ti_sysbios_knl_Swi_Module__state__V                                  
200029bc  ti_sysbios_knl_Task_Module__state__V                                 
20002a00  xdc_runtime_Memory_Module__state__V                                  
20002a04  xdc_runtime_System_Module__state__V                                  
20002a0c  ti_sysbios_family_arm_m3_Hwi_Module__state__V                        
20002a40  xdc_runtime_Error_Module__state__V                                   
20002a44  ti_sysbios_family_arm_cc26xx_Timer_Module__state__V                  
20002a4c  PowerCC26X2_module                                                   
20002b14  ICall_dispatcher                                                     
20002b18  ICall_enterCriticalSection                                           
20002b1c  ICall_leaveCriticalSection                                           
20002b38  HEAPMGR_SIZE                                                         
20002bc0  RF_cmdNop                                                            
20002bd0  RF_cmdRadioSetup                                                     
20002be8  RF_cmdIEEETx                                                         
20002c00  RF_cmdIEEECsma                                                       
20002c20  RF_cmdIEEERx                                                         
20002c5c  rxCmdHandle                                                          
20002c5e  fsCmdHandle                                                          
20002c60  lastPostCmd                                                          
20002c64  macSfdDetectCback                                                    
20002c6c  macTxTimestamp                                                       
20002c70  pMacRadioConfig                                                      
20002c74  macRfDrvTblPtr                                                       
20002c78  pRfIeeeTable                                                         
20002c7c  pMacRfAntSwitchSel                                                   
20002c80  macRxOutputIeee                                                      
20002c90  macFrmFilter                                                         
20002ca0  macSrcShortAddrList                                                  
20002cbc  macSrcExtAddrList                                                    
20002d38  ti_sysbios_knl_Task_Object__table__V                                 
20002d84  pwrmgr_initialized                                                   
20002d86  pwrmgr_attribute                                                     
20002d88  ti_sysbios_family_arm_cc26xx_Timer_Object__table__V                  
20002e88  ti_sysbios_gates_GateMutex_Object__table__V                          
20002ef5  osal_entity                                                          
20002efc  osal_qHead                                                           
20002f00  osal_eventloop_hook                                                  
20002f04  osal_icallMsg_hook                                                   
20002f08  osal_semaphore                                                       
20002f0c  osal_last_timestamp                                                  
20002f10  osal_tickperiod                                                      
20002f14  osal_max_msecs                                                       
20002f54  ti_sysbios_knl_Swi_Module_State_0_readyQ__A                          
20002f84  ti_sysbios_knl_Swi_Object__table__V                                  
20002fb4  ti_sysbios_knl_Task_Module_State_0_readyQ__A                         
20002fe8  mtProcessIncoming                                                    
20003014  RF_handle                                                            
20003018  macPhyTxPower                                                        
20003020  RF_params                                                            
2000303c  gpioPinConfigs                                                       
20003068  txCmdHandle                                                          
2000306a  macRadioAckIeeeFrame                                                 
20003070  macAckTimer                                                          
20003090  macTxSlottedDelayFactor                                              
20003091  macTxType                                                            
20003092  macTxBe                                                              
20003093  macTxGpInterframeDelay                                               
20003094  txAckReq                                                             
20003099  numTx                                                                
2000309a  macTxCsmaBackoffDelay                                                
2000309c  macCsmaRtcTimerId                                                    
200030a0  macAckDbg                                                            
200030b4  ti_sysbios_knl_Clock_Object__table__V                                
200030d4  xdc_runtime_Error_IgnoreBlock                                        
200030f4  macSpecUsecsPerSymbol                                                
200030f8  macPrevPeriodRatCount                                                
200030fc  macSymbolTimerRollover                                               
20003100  macSymbolTimerTrigger                                                
2000310c  ti_sysbios_family_arm_m3_Hwi_Object__table__V                        
20003124  ti_sysbios_heaps_HeapMem_Object__table__V                            
2000313c  ApiMac_appEntity                                                     
20003148  ApiMac_extAddr                                                       
20003150  gpioCallbackFunctions                                                
20003160  macCfg                                                               
20003170  AppTaskId                                                            
20003174  pMacCbackQueryRetransmit                                             
20003178  pMacCbackCheckPending                                                
20003190  macTxSlottedDelay                                                    
20003191  macUnitBackoffPeriod                                                 
20003192  rxFhRsl                                                              
20003193  macPhyChannel                                                        
20003194  macSrcMatchIsEnabled                                                 
2000319c  OSAL_timeSeconds                                                     
200031a8  _lock                                                                
200031ac  _unlock                                                              
200031b0  pinUpperBound                                                        
200031b4  pinLowerBound                                                        
200031b8  lastRatChanA                                                         
200031b9  lastRatChanB                                                         
200031ba  macRxCmdActive                                                       
200031bb  macTxCmdActive                                                       
200031bc  macFsCmdActive                                                       
200031bd  numRfCmd                                                             
200031be  numRxCmd                                                             
200031bf  numRxPostCmd                                                         
200031c0  ti_sysbios_family_arm_m3_Hwi_Module__root__V                         
200031c8  ti_sysbios_gates_GateHwi_Module__root__V                             
200031d0  ti_sysbios_gates_GateMutexPri_Module__root__V                        
200031d8  ti_sysbios_gates_GateMutex_Module__root__V                           
200031e0  ti_sysbios_hal_Hwi_Module__root__V                                   
200031e8  ti_sysbios_heaps_HeapMem_Module__root__V                             
200031f0  ti_sysbios_knl_Clock_Module__root__V                                 
200031f8  ti_sysbios_knl_Event_Module__root__V                                 
20003200  ti_sysbios_knl_Mailbox_Module__root__V                               
20003208  ti_sysbios_knl_Queue_Module__root__V                                 
20003210  ti_sysbios_knl_Semaphore_Module__root__V                             
20003218  ti_sysbios_knl_Swi_Module__root__V                                   
20003220  ti_sysbios_knl_Task_Module__root__V                                  
2000322d  CryptoResourceCC26XX_pollingFlag                                     
20003230  macSrcMatchIsAckAllPending                                           
20003231  macSrcResIndex                                                       
20003240  pOverridesTable_ieee                                                 
20003244  main_func_sp                                                         
20003248  ti_sysbios_family_arm_m3_Hwi_Module_State_0_excContext__A            
2000324c  ti_sysbios_family_arm_m3_Hwi_Module_State_0_excStack__A              
20003250  ti_sysbios_knl_Task_Module_State_0_idleTask__A                       
20003254  bInSwi                                                               
20003255  macRadioYielded                                                      
20003256  ti_sysbios_family_arm_m3_Hwi_Module_State_0_excActive__A             
20003260  ti_sysbios_heaps_HeapMem_Instance_State_0_buf__A                     
20003918  uartCC26XXObjects                                                    
20003b68  ti_sysbios_knl_Task_Instance_State_0_stack__A                        
20003d68  spiCC26XXDMAObjects                                                  
200040f0  ti_sysbios_family_arm_m3_Hwi_dispatchTable                           
20004290  pinHandleTable                                                       
20004378  aesccmCC26XXObjects                                                  
20004404  uartCC26XXRingBuffer                                                 
20004538  macRxFilter                                                          
20004539  rxPromiscuousMode                                                    
20004544  macRxDataEntryOffset                                                 
20004548  rxRadioBufferPtr                                                     
20004554  macRxDataEntryQueue                                                  
200045e0  udmaObjects                                                          
20004670  CryptoResourceCC26XX_accessSemaphore                                 
2000468c  CryptoResourceCC26XX_hwi                                             
200046a8  CryptoResourceCC26XX_operationSemaphore                              
20004770  nvsSPI25XObjects                                                     
2000477c  timerHead                                                            
20004794  ClockP_tickPeriod                                                    
20004798  PowerCC26XX_swiKey                                                   
2000479c  PowerCC26XX_taskKey                                                  
200047a0  macTasksEvents                                                       
200047a4  nvsCC26xxObjects                                                     
200047a9  driverlib_release_0_51995                                            
200047aa  macPwr                                                               
200047ab  macRxActive                                                          
200047ac  macRxEnableFlags                                                     
200047ad  macRxOutgoingAckFlag                                                 
200047ae  macSymbolTimerImpending                                              
200047af  macTxActive                                                          
200047b0  heapStart                                                            
20013b00  __stack                                                              
20013b00  heapEnd                                                              
20014000  __STACK_END                                                          
20014000  __STACK_TOP                                                          
e000e000  ti_sysbios_family_arm_m3_Hwi_nvic                                    
ffffffff  __TI_pprof_out_hndl                                                  
ffffffff  __TI_prof_data_size                                                  
ffffffff  __TI_prof_data_start                                                 
ffffffff  __binit__                                                            
ffffffff  __c_args__                                                           
ffffffff  binit                                                                
UNDEFED   SHT$$INIT_ARRAY$$Base                                                
UNDEFED   SHT$$INIT_ARRAY$$Limit                                               

[1469 symbols]
